   1              	 .cpu cortex-m0
   2              	 .fpu softvfp
   3              	 .eabi_attribute 20,1
   4              	 .eabi_attribute 21,1
   5              	 .eabi_attribute 23,3
   6              	 .eabi_attribute 24,1
   7              	 .eabi_attribute 25,1
   8              	 .eabi_attribute 26,1
   9              	 .eabi_attribute 30,6
  10              	 .eabi_attribute 34,0
  11              	 .eabi_attribute 18,4
  12              	 .code 16
  13              	 .file "XMC1100-LibHaas.c"
  14              	 .text
  15              	.Ltext0:
  16              	 .cfi_sections .debug_frame
  17              	 .section .text.__NVIC_EnableIRQ,"ax",%progbits
  18              	 .align 2
  19              	 .code 16
  20              	 .thumb_func
  22              	__NVIC_EnableIRQ:
  23              	.LFB23:
  24              	 .file 1 "C:/Users/Public/OptiSort/OptiSort/Microcontroller/Libraries/CMSIS/Include/core_cm0.h"
   1:C:/Users/Public/OptiSort/OptiSort/Microcontroller/Libraries/CMSIS/Include\core_cm0.h **** /**************************************************************************//**
   2:C:/Users/Public/OptiSort/OptiSort/Microcontroller/Libraries/CMSIS/Include\core_cm0.h ****  * @file     core_cm0.h
   3:C:/Users/Public/OptiSort/OptiSort/Microcontroller/Libraries/CMSIS/Include\core_cm0.h ****  * @brief    CMSIS Cortex-M0 Core Peripheral Access Layer Header File
   4:C:/Users/Public/OptiSort/OptiSort/Microcontroller/Libraries/CMSIS/Include\core_cm0.h ****  * @version  V5.0.2
   5:C:/Users/Public/OptiSort/OptiSort/Microcontroller/Libraries/CMSIS/Include\core_cm0.h ****  * @date     19. April 2017
   6:C:/Users/Public/OptiSort/OptiSort/Microcontroller/Libraries/CMSIS/Include\core_cm0.h ****  ******************************************************************************/
   7:C:/Users/Public/OptiSort/OptiSort/Microcontroller/Libraries/CMSIS/Include\core_cm0.h **** /*
   8:C:/Users/Public/OptiSort/OptiSort/Microcontroller/Libraries/CMSIS/Include\core_cm0.h ****  * Copyright (c) 2009-2017 ARM Limited. All rights reserved.
   9:C:/Users/Public/OptiSort/OptiSort/Microcontroller/Libraries/CMSIS/Include\core_cm0.h ****  *
  10:C:/Users/Public/OptiSort/OptiSort/Microcontroller/Libraries/CMSIS/Include\core_cm0.h ****  * SPDX-License-Identifier: Apache-2.0
  11:C:/Users/Public/OptiSort/OptiSort/Microcontroller/Libraries/CMSIS/Include\core_cm0.h ****  *
  12:C:/Users/Public/OptiSort/OptiSort/Microcontroller/Libraries/CMSIS/Include\core_cm0.h ****  * Licensed under the Apache License, Version 2.0 (the License); you may
  13:C:/Users/Public/OptiSort/OptiSort/Microcontroller/Libraries/CMSIS/Include\core_cm0.h ****  * not use this file except in compliance with the License.
  14:C:/Users/Public/OptiSort/OptiSort/Microcontroller/Libraries/CMSIS/Include\core_cm0.h ****  * You may obtain a copy of the License at
  15:C:/Users/Public/OptiSort/OptiSort/Microcontroller/Libraries/CMSIS/Include\core_cm0.h ****  *
  16:C:/Users/Public/OptiSort/OptiSort/Microcontroller/Libraries/CMSIS/Include\core_cm0.h ****  * www.apache.org/licenses/LICENSE-2.0
  17:C:/Users/Public/OptiSort/OptiSort/Microcontroller/Libraries/CMSIS/Include\core_cm0.h ****  *
  18:C:/Users/Public/OptiSort/OptiSort/Microcontroller/Libraries/CMSIS/Include\core_cm0.h ****  * Unless required by applicable law or agreed to in writing, software
  19:C:/Users/Public/OptiSort/OptiSort/Microcontroller/Libraries/CMSIS/Include\core_cm0.h ****  * distributed under the License is distributed on an AS IS BASIS, WITHOUT
  20:C:/Users/Public/OptiSort/OptiSort/Microcontroller/Libraries/CMSIS/Include\core_cm0.h ****  * WARRANTIES OR CONDITIONS OF ANY KIND, either express or implied.
  21:C:/Users/Public/OptiSort/OptiSort/Microcontroller/Libraries/CMSIS/Include\core_cm0.h ****  * See the License for the specific language governing permissions and
  22:C:/Users/Public/OptiSort/OptiSort/Microcontroller/Libraries/CMSIS/Include\core_cm0.h ****  * limitations under the License.
  23:C:/Users/Public/OptiSort/OptiSort/Microcontroller/Libraries/CMSIS/Include\core_cm0.h ****  */
  24:C:/Users/Public/OptiSort/OptiSort/Microcontroller/Libraries/CMSIS/Include\core_cm0.h **** 
  25:C:/Users/Public/OptiSort/OptiSort/Microcontroller/Libraries/CMSIS/Include\core_cm0.h **** #if   defined ( __ICCARM__ )
  26:C:/Users/Public/OptiSort/OptiSort/Microcontroller/Libraries/CMSIS/Include\core_cm0.h ****   #pragma system_include         /* treat file as system include file for MISRA check */
  27:C:/Users/Public/OptiSort/OptiSort/Microcontroller/Libraries/CMSIS/Include\core_cm0.h **** #elif defined (__clang__)
  28:C:/Users/Public/OptiSort/OptiSort/Microcontroller/Libraries/CMSIS/Include\core_cm0.h ****   #pragma clang system_header   /* treat file as system include file */
  29:C:/Users/Public/OptiSort/OptiSort/Microcontroller/Libraries/CMSIS/Include\core_cm0.h **** #endif
  30:C:/Users/Public/OptiSort/OptiSort/Microcontroller/Libraries/CMSIS/Include\core_cm0.h **** 
  31:C:/Users/Public/OptiSort/OptiSort/Microcontroller/Libraries/CMSIS/Include\core_cm0.h **** #ifndef __CORE_CM0_H_GENERIC
  32:C:/Users/Public/OptiSort/OptiSort/Microcontroller/Libraries/CMSIS/Include\core_cm0.h **** #define __CORE_CM0_H_GENERIC
  33:C:/Users/Public/OptiSort/OptiSort/Microcontroller/Libraries/CMSIS/Include\core_cm0.h **** 
  34:C:/Users/Public/OptiSort/OptiSort/Microcontroller/Libraries/CMSIS/Include\core_cm0.h **** #include <stdint.h>
  35:C:/Users/Public/OptiSort/OptiSort/Microcontroller/Libraries/CMSIS/Include\core_cm0.h **** 
  36:C:/Users/Public/OptiSort/OptiSort/Microcontroller/Libraries/CMSIS/Include\core_cm0.h **** #ifdef __cplusplus
  37:C:/Users/Public/OptiSort/OptiSort/Microcontroller/Libraries/CMSIS/Include\core_cm0.h ****  extern "C" {
  38:C:/Users/Public/OptiSort/OptiSort/Microcontroller/Libraries/CMSIS/Include\core_cm0.h **** #endif
  39:C:/Users/Public/OptiSort/OptiSort/Microcontroller/Libraries/CMSIS/Include\core_cm0.h **** 
  40:C:/Users/Public/OptiSort/OptiSort/Microcontroller/Libraries/CMSIS/Include\core_cm0.h **** /**
  41:C:/Users/Public/OptiSort/OptiSort/Microcontroller/Libraries/CMSIS/Include\core_cm0.h ****   \page CMSIS_MISRA_Exceptions  MISRA-C:2004 Compliance Exceptions
  42:C:/Users/Public/OptiSort/OptiSort/Microcontroller/Libraries/CMSIS/Include\core_cm0.h ****   CMSIS violates the following MISRA-C:2004 rules:
  43:C:/Users/Public/OptiSort/OptiSort/Microcontroller/Libraries/CMSIS/Include\core_cm0.h **** 
  44:C:/Users/Public/OptiSort/OptiSort/Microcontroller/Libraries/CMSIS/Include\core_cm0.h ****    \li Required Rule 8.5, object/function definition in header file.<br>
  45:C:/Users/Public/OptiSort/OptiSort/Microcontroller/Libraries/CMSIS/Include\core_cm0.h ****      Function definitions in header files are used to allow 'inlining'.
  46:C:/Users/Public/OptiSort/OptiSort/Microcontroller/Libraries/CMSIS/Include\core_cm0.h **** 
  47:C:/Users/Public/OptiSort/OptiSort/Microcontroller/Libraries/CMSIS/Include\core_cm0.h ****    \li Required Rule 18.4, declaration of union type or object of union type: '{...}'.<br>
  48:C:/Users/Public/OptiSort/OptiSort/Microcontroller/Libraries/CMSIS/Include\core_cm0.h ****      Unions are used for effective representation of core registers.
  49:C:/Users/Public/OptiSort/OptiSort/Microcontroller/Libraries/CMSIS/Include\core_cm0.h **** 
  50:C:/Users/Public/OptiSort/OptiSort/Microcontroller/Libraries/CMSIS/Include\core_cm0.h ****    \li Advisory Rule 19.7, Function-like macro defined.<br>
  51:C:/Users/Public/OptiSort/OptiSort/Microcontroller/Libraries/CMSIS/Include\core_cm0.h ****      Function-like macros are used to allow more efficient code.
  52:C:/Users/Public/OptiSort/OptiSort/Microcontroller/Libraries/CMSIS/Include\core_cm0.h ****  */
  53:C:/Users/Public/OptiSort/OptiSort/Microcontroller/Libraries/CMSIS/Include\core_cm0.h **** 
  54:C:/Users/Public/OptiSort/OptiSort/Microcontroller/Libraries/CMSIS/Include\core_cm0.h **** 
  55:C:/Users/Public/OptiSort/OptiSort/Microcontroller/Libraries/CMSIS/Include\core_cm0.h **** /*******************************************************************************
  56:C:/Users/Public/OptiSort/OptiSort/Microcontroller/Libraries/CMSIS/Include\core_cm0.h ****  *                 CMSIS definitions
  57:C:/Users/Public/OptiSort/OptiSort/Microcontroller/Libraries/CMSIS/Include\core_cm0.h ****  ******************************************************************************/
  58:C:/Users/Public/OptiSort/OptiSort/Microcontroller/Libraries/CMSIS/Include\core_cm0.h **** /**
  59:C:/Users/Public/OptiSort/OptiSort/Microcontroller/Libraries/CMSIS/Include\core_cm0.h ****   \ingroup Cortex_M0
  60:C:/Users/Public/OptiSort/OptiSort/Microcontroller/Libraries/CMSIS/Include\core_cm0.h ****   @{
  61:C:/Users/Public/OptiSort/OptiSort/Microcontroller/Libraries/CMSIS/Include\core_cm0.h ****  */
  62:C:/Users/Public/OptiSort/OptiSort/Microcontroller/Libraries/CMSIS/Include\core_cm0.h **** 
  63:C:/Users/Public/OptiSort/OptiSort/Microcontroller/Libraries/CMSIS/Include\core_cm0.h **** #include "cmsis_version.h"
  64:C:/Users/Public/OptiSort/OptiSort/Microcontroller/Libraries/CMSIS/Include\core_cm0.h ****  
  65:C:/Users/Public/OptiSort/OptiSort/Microcontroller/Libraries/CMSIS/Include\core_cm0.h **** /*  CMSIS CM0 definitions */
  66:C:/Users/Public/OptiSort/OptiSort/Microcontroller/Libraries/CMSIS/Include\core_cm0.h **** #define __CM0_CMSIS_VERSION_MAIN  (__CM_CMSIS_VERSION_MAIN)              /*!< \deprecated [31:16] C
  67:C:/Users/Public/OptiSort/OptiSort/Microcontroller/Libraries/CMSIS/Include\core_cm0.h **** #define __CM0_CMSIS_VERSION_SUB   (__CM_CMSIS_VERSION_SUB)               /*!< \deprecated [15:0]  C
  68:C:/Users/Public/OptiSort/OptiSort/Microcontroller/Libraries/CMSIS/Include\core_cm0.h **** #define __CM0_CMSIS_VERSION       ((__CM0_CMSIS_VERSION_MAIN << 16U) | \
  69:C:/Users/Public/OptiSort/OptiSort/Microcontroller/Libraries/CMSIS/Include\core_cm0.h ****                                     __CM0_CMSIS_VERSION_SUB           )  /*!< \deprecated CMSIS HAL
  70:C:/Users/Public/OptiSort/OptiSort/Microcontroller/Libraries/CMSIS/Include\core_cm0.h **** 
  71:C:/Users/Public/OptiSort/OptiSort/Microcontroller/Libraries/CMSIS/Include\core_cm0.h **** #define __CORTEX_M                (0U)                                   /*!< Cortex-M Core */
  72:C:/Users/Public/OptiSort/OptiSort/Microcontroller/Libraries/CMSIS/Include\core_cm0.h **** 
  73:C:/Users/Public/OptiSort/OptiSort/Microcontroller/Libraries/CMSIS/Include\core_cm0.h **** /** __FPU_USED indicates whether an FPU is used or not.
  74:C:/Users/Public/OptiSort/OptiSort/Microcontroller/Libraries/CMSIS/Include\core_cm0.h ****     This core does not support an FPU at all
  75:C:/Users/Public/OptiSort/OptiSort/Microcontroller/Libraries/CMSIS/Include\core_cm0.h **** */
  76:C:/Users/Public/OptiSort/OptiSort/Microcontroller/Libraries/CMSIS/Include\core_cm0.h **** #define __FPU_USED       0U
  77:C:/Users/Public/OptiSort/OptiSort/Microcontroller/Libraries/CMSIS/Include\core_cm0.h **** 
  78:C:/Users/Public/OptiSort/OptiSort/Microcontroller/Libraries/CMSIS/Include\core_cm0.h **** #if defined ( __CC_ARM )
  79:C:/Users/Public/OptiSort/OptiSort/Microcontroller/Libraries/CMSIS/Include\core_cm0.h ****   #if defined __TARGET_FPU_VFP
  80:C:/Users/Public/OptiSort/OptiSort/Microcontroller/Libraries/CMSIS/Include\core_cm0.h ****     #error "Compiler generates FPU instructions for a device without an FPU (check __FPU_PRESENT)"
  81:C:/Users/Public/OptiSort/OptiSort/Microcontroller/Libraries/CMSIS/Include\core_cm0.h ****   #endif
  82:C:/Users/Public/OptiSort/OptiSort/Microcontroller/Libraries/CMSIS/Include\core_cm0.h **** 
  83:C:/Users/Public/OptiSort/OptiSort/Microcontroller/Libraries/CMSIS/Include\core_cm0.h **** #elif defined (__ARMCC_VERSION) && (__ARMCC_VERSION >= 6010050)
  84:C:/Users/Public/OptiSort/OptiSort/Microcontroller/Libraries/CMSIS/Include\core_cm0.h ****   #if defined __ARM_PCS_VFP
  85:C:/Users/Public/OptiSort/OptiSort/Microcontroller/Libraries/CMSIS/Include\core_cm0.h ****     #error "Compiler generates FPU instructions for a device without an FPU (check __FPU_PRESENT)"
  86:C:/Users/Public/OptiSort/OptiSort/Microcontroller/Libraries/CMSIS/Include\core_cm0.h ****   #endif
  87:C:/Users/Public/OptiSort/OptiSort/Microcontroller/Libraries/CMSIS/Include\core_cm0.h **** 
  88:C:/Users/Public/OptiSort/OptiSort/Microcontroller/Libraries/CMSIS/Include\core_cm0.h **** #elif defined ( __GNUC__ )
  89:C:/Users/Public/OptiSort/OptiSort/Microcontroller/Libraries/CMSIS/Include\core_cm0.h ****   #if defined (__VFP_FP__) && !defined(__SOFTFP__)
  90:C:/Users/Public/OptiSort/OptiSort/Microcontroller/Libraries/CMSIS/Include\core_cm0.h ****     #error "Compiler generates FPU instructions for a device without an FPU (check __FPU_PRESENT)"
  91:C:/Users/Public/OptiSort/OptiSort/Microcontroller/Libraries/CMSIS/Include\core_cm0.h ****   #endif
  92:C:/Users/Public/OptiSort/OptiSort/Microcontroller/Libraries/CMSIS/Include\core_cm0.h **** 
  93:C:/Users/Public/OptiSort/OptiSort/Microcontroller/Libraries/CMSIS/Include\core_cm0.h **** #elif defined ( __ICCARM__ )
  94:C:/Users/Public/OptiSort/OptiSort/Microcontroller/Libraries/CMSIS/Include\core_cm0.h ****   #if defined __ARMVFP__
  95:C:/Users/Public/OptiSort/OptiSort/Microcontroller/Libraries/CMSIS/Include\core_cm0.h ****     #error "Compiler generates FPU instructions for a device without an FPU (check __FPU_PRESENT)"
  96:C:/Users/Public/OptiSort/OptiSort/Microcontroller/Libraries/CMSIS/Include\core_cm0.h ****   #endif
  97:C:/Users/Public/OptiSort/OptiSort/Microcontroller/Libraries/CMSIS/Include\core_cm0.h **** 
  98:C:/Users/Public/OptiSort/OptiSort/Microcontroller/Libraries/CMSIS/Include\core_cm0.h **** #elif defined ( __TI_ARM__ )
  99:C:/Users/Public/OptiSort/OptiSort/Microcontroller/Libraries/CMSIS/Include\core_cm0.h ****   #if defined __TI_VFP_SUPPORT__
 100:C:/Users/Public/OptiSort/OptiSort/Microcontroller/Libraries/CMSIS/Include\core_cm0.h ****     #error "Compiler generates FPU instructions for a device without an FPU (check __FPU_PRESENT)"
 101:C:/Users/Public/OptiSort/OptiSort/Microcontroller/Libraries/CMSIS/Include\core_cm0.h ****   #endif
 102:C:/Users/Public/OptiSort/OptiSort/Microcontroller/Libraries/CMSIS/Include\core_cm0.h **** 
 103:C:/Users/Public/OptiSort/OptiSort/Microcontroller/Libraries/CMSIS/Include\core_cm0.h **** #elif defined ( __TASKING__ )
 104:C:/Users/Public/OptiSort/OptiSort/Microcontroller/Libraries/CMSIS/Include\core_cm0.h ****   #if defined __FPU_VFP__
 105:C:/Users/Public/OptiSort/OptiSort/Microcontroller/Libraries/CMSIS/Include\core_cm0.h ****     #error "Compiler generates FPU instructions for a device without an FPU (check __FPU_PRESENT)"
 106:C:/Users/Public/OptiSort/OptiSort/Microcontroller/Libraries/CMSIS/Include\core_cm0.h ****   #endif
 107:C:/Users/Public/OptiSort/OptiSort/Microcontroller/Libraries/CMSIS/Include\core_cm0.h **** 
 108:C:/Users/Public/OptiSort/OptiSort/Microcontroller/Libraries/CMSIS/Include\core_cm0.h **** #elif defined ( __CSMC__ )
 109:C:/Users/Public/OptiSort/OptiSort/Microcontroller/Libraries/CMSIS/Include\core_cm0.h ****   #if ( __CSMC__ & 0x400U)
 110:C:/Users/Public/OptiSort/OptiSort/Microcontroller/Libraries/CMSIS/Include\core_cm0.h ****     #error "Compiler generates FPU instructions for a device without an FPU (check __FPU_PRESENT)"
 111:C:/Users/Public/OptiSort/OptiSort/Microcontroller/Libraries/CMSIS/Include\core_cm0.h ****   #endif
 112:C:/Users/Public/OptiSort/OptiSort/Microcontroller/Libraries/CMSIS/Include\core_cm0.h **** 
 113:C:/Users/Public/OptiSort/OptiSort/Microcontroller/Libraries/CMSIS/Include\core_cm0.h **** #endif
 114:C:/Users/Public/OptiSort/OptiSort/Microcontroller/Libraries/CMSIS/Include\core_cm0.h **** 
 115:C:/Users/Public/OptiSort/OptiSort/Microcontroller/Libraries/CMSIS/Include\core_cm0.h **** #include "cmsis_compiler.h"               /* CMSIS compiler specific defines */
 116:C:/Users/Public/OptiSort/OptiSort/Microcontroller/Libraries/CMSIS/Include\core_cm0.h **** 
 117:C:/Users/Public/OptiSort/OptiSort/Microcontroller/Libraries/CMSIS/Include\core_cm0.h **** 
 118:C:/Users/Public/OptiSort/OptiSort/Microcontroller/Libraries/CMSIS/Include\core_cm0.h **** #ifdef __cplusplus
 119:C:/Users/Public/OptiSort/OptiSort/Microcontroller/Libraries/CMSIS/Include\core_cm0.h **** }
 120:C:/Users/Public/OptiSort/OptiSort/Microcontroller/Libraries/CMSIS/Include\core_cm0.h **** #endif
 121:C:/Users/Public/OptiSort/OptiSort/Microcontroller/Libraries/CMSIS/Include\core_cm0.h **** 
 122:C:/Users/Public/OptiSort/OptiSort/Microcontroller/Libraries/CMSIS/Include\core_cm0.h **** #endif /* __CORE_CM0_H_GENERIC */
 123:C:/Users/Public/OptiSort/OptiSort/Microcontroller/Libraries/CMSIS/Include\core_cm0.h **** 
 124:C:/Users/Public/OptiSort/OptiSort/Microcontroller/Libraries/CMSIS/Include\core_cm0.h **** #ifndef __CMSIS_GENERIC
 125:C:/Users/Public/OptiSort/OptiSort/Microcontroller/Libraries/CMSIS/Include\core_cm0.h **** 
 126:C:/Users/Public/OptiSort/OptiSort/Microcontroller/Libraries/CMSIS/Include\core_cm0.h **** #ifndef __CORE_CM0_H_DEPENDANT
 127:C:/Users/Public/OptiSort/OptiSort/Microcontroller/Libraries/CMSIS/Include\core_cm0.h **** #define __CORE_CM0_H_DEPENDANT
 128:C:/Users/Public/OptiSort/OptiSort/Microcontroller/Libraries/CMSIS/Include\core_cm0.h **** 
 129:C:/Users/Public/OptiSort/OptiSort/Microcontroller/Libraries/CMSIS/Include\core_cm0.h **** #ifdef __cplusplus
 130:C:/Users/Public/OptiSort/OptiSort/Microcontroller/Libraries/CMSIS/Include\core_cm0.h ****  extern "C" {
 131:C:/Users/Public/OptiSort/OptiSort/Microcontroller/Libraries/CMSIS/Include\core_cm0.h **** #endif
 132:C:/Users/Public/OptiSort/OptiSort/Microcontroller/Libraries/CMSIS/Include\core_cm0.h **** 
 133:C:/Users/Public/OptiSort/OptiSort/Microcontroller/Libraries/CMSIS/Include\core_cm0.h **** /* check device defines and use defaults */
 134:C:/Users/Public/OptiSort/OptiSort/Microcontroller/Libraries/CMSIS/Include\core_cm0.h **** #if defined __CHECK_DEVICE_DEFINES
 135:C:/Users/Public/OptiSort/OptiSort/Microcontroller/Libraries/CMSIS/Include\core_cm0.h ****   #ifndef __CM0_REV
 136:C:/Users/Public/OptiSort/OptiSort/Microcontroller/Libraries/CMSIS/Include\core_cm0.h ****     #define __CM0_REV               0x0000U
 137:C:/Users/Public/OptiSort/OptiSort/Microcontroller/Libraries/CMSIS/Include\core_cm0.h ****     #warning "__CM0_REV not defined in device header file; using default!"
 138:C:/Users/Public/OptiSort/OptiSort/Microcontroller/Libraries/CMSIS/Include\core_cm0.h ****   #endif
 139:C:/Users/Public/OptiSort/OptiSort/Microcontroller/Libraries/CMSIS/Include\core_cm0.h **** 
 140:C:/Users/Public/OptiSort/OptiSort/Microcontroller/Libraries/CMSIS/Include\core_cm0.h ****   #ifndef __NVIC_PRIO_BITS
 141:C:/Users/Public/OptiSort/OptiSort/Microcontroller/Libraries/CMSIS/Include\core_cm0.h ****     #define __NVIC_PRIO_BITS          2U
 142:C:/Users/Public/OptiSort/OptiSort/Microcontroller/Libraries/CMSIS/Include\core_cm0.h ****     #warning "__NVIC_PRIO_BITS not defined in device header file; using default!"
 143:C:/Users/Public/OptiSort/OptiSort/Microcontroller/Libraries/CMSIS/Include\core_cm0.h ****   #endif
 144:C:/Users/Public/OptiSort/OptiSort/Microcontroller/Libraries/CMSIS/Include\core_cm0.h **** 
 145:C:/Users/Public/OptiSort/OptiSort/Microcontroller/Libraries/CMSIS/Include\core_cm0.h ****   #ifndef __Vendor_SysTickConfig
 146:C:/Users/Public/OptiSort/OptiSort/Microcontroller/Libraries/CMSIS/Include\core_cm0.h ****     #define __Vendor_SysTickConfig    0U
 147:C:/Users/Public/OptiSort/OptiSort/Microcontroller/Libraries/CMSIS/Include\core_cm0.h ****     #warning "__Vendor_SysTickConfig not defined in device header file; using default!"
 148:C:/Users/Public/OptiSort/OptiSort/Microcontroller/Libraries/CMSIS/Include\core_cm0.h ****   #endif
 149:C:/Users/Public/OptiSort/OptiSort/Microcontroller/Libraries/CMSIS/Include\core_cm0.h **** #endif
 150:C:/Users/Public/OptiSort/OptiSort/Microcontroller/Libraries/CMSIS/Include\core_cm0.h **** 
 151:C:/Users/Public/OptiSort/OptiSort/Microcontroller/Libraries/CMSIS/Include\core_cm0.h **** /* IO definitions (access restrictions to peripheral registers) */
 152:C:/Users/Public/OptiSort/OptiSort/Microcontroller/Libraries/CMSIS/Include\core_cm0.h **** /**
 153:C:/Users/Public/OptiSort/OptiSort/Microcontroller/Libraries/CMSIS/Include\core_cm0.h ****     \defgroup CMSIS_glob_defs CMSIS Global Defines
 154:C:/Users/Public/OptiSort/OptiSort/Microcontroller/Libraries/CMSIS/Include\core_cm0.h **** 
 155:C:/Users/Public/OptiSort/OptiSort/Microcontroller/Libraries/CMSIS/Include\core_cm0.h ****     <strong>IO Type Qualifiers</strong> are used
 156:C:/Users/Public/OptiSort/OptiSort/Microcontroller/Libraries/CMSIS/Include\core_cm0.h ****     \li to specify the access to peripheral variables.
 157:C:/Users/Public/OptiSort/OptiSort/Microcontroller/Libraries/CMSIS/Include\core_cm0.h ****     \li for automatic generation of peripheral register debug information.
 158:C:/Users/Public/OptiSort/OptiSort/Microcontroller/Libraries/CMSIS/Include\core_cm0.h **** */
 159:C:/Users/Public/OptiSort/OptiSort/Microcontroller/Libraries/CMSIS/Include\core_cm0.h **** #ifdef __cplusplus
 160:C:/Users/Public/OptiSort/OptiSort/Microcontroller/Libraries/CMSIS/Include\core_cm0.h ****   #define   __I     volatile             /*!< Defines 'read only' permissions */
 161:C:/Users/Public/OptiSort/OptiSort/Microcontroller/Libraries/CMSIS/Include\core_cm0.h **** #else
 162:C:/Users/Public/OptiSort/OptiSort/Microcontroller/Libraries/CMSIS/Include\core_cm0.h ****   #define   __I     volatile const       /*!< Defines 'read only' permissions */
 163:C:/Users/Public/OptiSort/OptiSort/Microcontroller/Libraries/CMSIS/Include\core_cm0.h **** #endif
 164:C:/Users/Public/OptiSort/OptiSort/Microcontroller/Libraries/CMSIS/Include\core_cm0.h **** #define     __O     volatile             /*!< Defines 'write only' permissions */
 165:C:/Users/Public/OptiSort/OptiSort/Microcontroller/Libraries/CMSIS/Include\core_cm0.h **** #define     __IO    volatile             /*!< Defines 'read / write' permissions */
 166:C:/Users/Public/OptiSort/OptiSort/Microcontroller/Libraries/CMSIS/Include\core_cm0.h **** 
 167:C:/Users/Public/OptiSort/OptiSort/Microcontroller/Libraries/CMSIS/Include\core_cm0.h **** /* following defines should be used for structure members */
 168:C:/Users/Public/OptiSort/OptiSort/Microcontroller/Libraries/CMSIS/Include\core_cm0.h **** #define     __IM     volatile const      /*! Defines 'read only' structure member permissions */
 169:C:/Users/Public/OptiSort/OptiSort/Microcontroller/Libraries/CMSIS/Include\core_cm0.h **** #define     __OM     volatile            /*! Defines 'write only' structure member permissions */
 170:C:/Users/Public/OptiSort/OptiSort/Microcontroller/Libraries/CMSIS/Include\core_cm0.h **** #define     __IOM    volatile            /*! Defines 'read / write' structure member permissions */
 171:C:/Users/Public/OptiSort/OptiSort/Microcontroller/Libraries/CMSIS/Include\core_cm0.h **** 
 172:C:/Users/Public/OptiSort/OptiSort/Microcontroller/Libraries/CMSIS/Include\core_cm0.h **** /*@} end of group Cortex_M0 */
 173:C:/Users/Public/OptiSort/OptiSort/Microcontroller/Libraries/CMSIS/Include\core_cm0.h **** 
 174:C:/Users/Public/OptiSort/OptiSort/Microcontroller/Libraries/CMSIS/Include\core_cm0.h **** 
 175:C:/Users/Public/OptiSort/OptiSort/Microcontroller/Libraries/CMSIS/Include\core_cm0.h **** 
 176:C:/Users/Public/OptiSort/OptiSort/Microcontroller/Libraries/CMSIS/Include\core_cm0.h **** /*******************************************************************************
 177:C:/Users/Public/OptiSort/OptiSort/Microcontroller/Libraries/CMSIS/Include\core_cm0.h ****  *                 Register Abstraction
 178:C:/Users/Public/OptiSort/OptiSort/Microcontroller/Libraries/CMSIS/Include\core_cm0.h ****   Core Register contain:
 179:C:/Users/Public/OptiSort/OptiSort/Microcontroller/Libraries/CMSIS/Include\core_cm0.h ****   - Core Register
 180:C:/Users/Public/OptiSort/OptiSort/Microcontroller/Libraries/CMSIS/Include\core_cm0.h ****   - Core NVIC Register
 181:C:/Users/Public/OptiSort/OptiSort/Microcontroller/Libraries/CMSIS/Include\core_cm0.h ****   - Core SCB Register
 182:C:/Users/Public/OptiSort/OptiSort/Microcontroller/Libraries/CMSIS/Include\core_cm0.h ****   - Core SysTick Register
 183:C:/Users/Public/OptiSort/OptiSort/Microcontroller/Libraries/CMSIS/Include\core_cm0.h ****  ******************************************************************************/
 184:C:/Users/Public/OptiSort/OptiSort/Microcontroller/Libraries/CMSIS/Include\core_cm0.h **** /**
 185:C:/Users/Public/OptiSort/OptiSort/Microcontroller/Libraries/CMSIS/Include\core_cm0.h ****   \defgroup CMSIS_core_register Defines and Type Definitions
 186:C:/Users/Public/OptiSort/OptiSort/Microcontroller/Libraries/CMSIS/Include\core_cm0.h ****   \brief Type definitions and defines for Cortex-M processor based devices.
 187:C:/Users/Public/OptiSort/OptiSort/Microcontroller/Libraries/CMSIS/Include\core_cm0.h **** */
 188:C:/Users/Public/OptiSort/OptiSort/Microcontroller/Libraries/CMSIS/Include\core_cm0.h **** 
 189:C:/Users/Public/OptiSort/OptiSort/Microcontroller/Libraries/CMSIS/Include\core_cm0.h **** /**
 190:C:/Users/Public/OptiSort/OptiSort/Microcontroller/Libraries/CMSIS/Include\core_cm0.h ****   \ingroup    CMSIS_core_register
 191:C:/Users/Public/OptiSort/OptiSort/Microcontroller/Libraries/CMSIS/Include\core_cm0.h ****   \defgroup   CMSIS_CORE  Status and Control Registers
 192:C:/Users/Public/OptiSort/OptiSort/Microcontroller/Libraries/CMSIS/Include\core_cm0.h ****   \brief      Core Register type definitions.
 193:C:/Users/Public/OptiSort/OptiSort/Microcontroller/Libraries/CMSIS/Include\core_cm0.h ****   @{
 194:C:/Users/Public/OptiSort/OptiSort/Microcontroller/Libraries/CMSIS/Include\core_cm0.h ****  */
 195:C:/Users/Public/OptiSort/OptiSort/Microcontroller/Libraries/CMSIS/Include\core_cm0.h **** 
 196:C:/Users/Public/OptiSort/OptiSort/Microcontroller/Libraries/CMSIS/Include\core_cm0.h **** /**
 197:C:/Users/Public/OptiSort/OptiSort/Microcontroller/Libraries/CMSIS/Include\core_cm0.h ****   \brief  Union type to access the Application Program Status Register (APSR).
 198:C:/Users/Public/OptiSort/OptiSort/Microcontroller/Libraries/CMSIS/Include\core_cm0.h ****  */
 199:C:/Users/Public/OptiSort/OptiSort/Microcontroller/Libraries/CMSIS/Include\core_cm0.h **** typedef union
 200:C:/Users/Public/OptiSort/OptiSort/Microcontroller/Libraries/CMSIS/Include\core_cm0.h **** {
 201:C:/Users/Public/OptiSort/OptiSort/Microcontroller/Libraries/CMSIS/Include\core_cm0.h ****   struct
 202:C:/Users/Public/OptiSort/OptiSort/Microcontroller/Libraries/CMSIS/Include\core_cm0.h ****   {
 203:C:/Users/Public/OptiSort/OptiSort/Microcontroller/Libraries/CMSIS/Include\core_cm0.h ****     uint32_t _reserved0:28;              /*!< bit:  0..27  Reserved */
 204:C:/Users/Public/OptiSort/OptiSort/Microcontroller/Libraries/CMSIS/Include\core_cm0.h ****     uint32_t V:1;                        /*!< bit:     28  Overflow condition code flag */
 205:C:/Users/Public/OptiSort/OptiSort/Microcontroller/Libraries/CMSIS/Include\core_cm0.h ****     uint32_t C:1;                        /*!< bit:     29  Carry condition code flag */
 206:C:/Users/Public/OptiSort/OptiSort/Microcontroller/Libraries/CMSIS/Include\core_cm0.h ****     uint32_t Z:1;                        /*!< bit:     30  Zero condition code flag */
 207:C:/Users/Public/OptiSort/OptiSort/Microcontroller/Libraries/CMSIS/Include\core_cm0.h ****     uint32_t N:1;                        /*!< bit:     31  Negative condition code flag */
 208:C:/Users/Public/OptiSort/OptiSort/Microcontroller/Libraries/CMSIS/Include\core_cm0.h ****   } b;                                   /*!< Structure used for bit  access */
 209:C:/Users/Public/OptiSort/OptiSort/Microcontroller/Libraries/CMSIS/Include\core_cm0.h ****   uint32_t w;                            /*!< Type      used for word access */
 210:C:/Users/Public/OptiSort/OptiSort/Microcontroller/Libraries/CMSIS/Include\core_cm0.h **** } APSR_Type;
 211:C:/Users/Public/OptiSort/OptiSort/Microcontroller/Libraries/CMSIS/Include\core_cm0.h **** 
 212:C:/Users/Public/OptiSort/OptiSort/Microcontroller/Libraries/CMSIS/Include\core_cm0.h **** /* APSR Register Definitions */
 213:C:/Users/Public/OptiSort/OptiSort/Microcontroller/Libraries/CMSIS/Include\core_cm0.h **** #define APSR_N_Pos                         31U                                            /*!< APSR
 214:C:/Users/Public/OptiSort/OptiSort/Microcontroller/Libraries/CMSIS/Include\core_cm0.h **** #define APSR_N_Msk                         (1UL << APSR_N_Pos)                            /*!< APSR
 215:C:/Users/Public/OptiSort/OptiSort/Microcontroller/Libraries/CMSIS/Include\core_cm0.h **** 
 216:C:/Users/Public/OptiSort/OptiSort/Microcontroller/Libraries/CMSIS/Include\core_cm0.h **** #define APSR_Z_Pos                         30U                                            /*!< APSR
 217:C:/Users/Public/OptiSort/OptiSort/Microcontroller/Libraries/CMSIS/Include\core_cm0.h **** #define APSR_Z_Msk                         (1UL << APSR_Z_Pos)                            /*!< APSR
 218:C:/Users/Public/OptiSort/OptiSort/Microcontroller/Libraries/CMSIS/Include\core_cm0.h **** 
 219:C:/Users/Public/OptiSort/OptiSort/Microcontroller/Libraries/CMSIS/Include\core_cm0.h **** #define APSR_C_Pos                         29U                                            /*!< APSR
 220:C:/Users/Public/OptiSort/OptiSort/Microcontroller/Libraries/CMSIS/Include\core_cm0.h **** #define APSR_C_Msk                         (1UL << APSR_C_Pos)                            /*!< APSR
 221:C:/Users/Public/OptiSort/OptiSort/Microcontroller/Libraries/CMSIS/Include\core_cm0.h **** 
 222:C:/Users/Public/OptiSort/OptiSort/Microcontroller/Libraries/CMSIS/Include\core_cm0.h **** #define APSR_V_Pos                         28U                                            /*!< APSR
 223:C:/Users/Public/OptiSort/OptiSort/Microcontroller/Libraries/CMSIS/Include\core_cm0.h **** #define APSR_V_Msk                         (1UL << APSR_V_Pos)                            /*!< APSR
 224:C:/Users/Public/OptiSort/OptiSort/Microcontroller/Libraries/CMSIS/Include\core_cm0.h **** 
 225:C:/Users/Public/OptiSort/OptiSort/Microcontroller/Libraries/CMSIS/Include\core_cm0.h **** 
 226:C:/Users/Public/OptiSort/OptiSort/Microcontroller/Libraries/CMSIS/Include\core_cm0.h **** /**
 227:C:/Users/Public/OptiSort/OptiSort/Microcontroller/Libraries/CMSIS/Include\core_cm0.h ****   \brief  Union type to access the Interrupt Program Status Register (IPSR).
 228:C:/Users/Public/OptiSort/OptiSort/Microcontroller/Libraries/CMSIS/Include\core_cm0.h ****  */
 229:C:/Users/Public/OptiSort/OptiSort/Microcontroller/Libraries/CMSIS/Include\core_cm0.h **** typedef union
 230:C:/Users/Public/OptiSort/OptiSort/Microcontroller/Libraries/CMSIS/Include\core_cm0.h **** {
 231:C:/Users/Public/OptiSort/OptiSort/Microcontroller/Libraries/CMSIS/Include\core_cm0.h ****   struct
 232:C:/Users/Public/OptiSort/OptiSort/Microcontroller/Libraries/CMSIS/Include\core_cm0.h ****   {
 233:C:/Users/Public/OptiSort/OptiSort/Microcontroller/Libraries/CMSIS/Include\core_cm0.h ****     uint32_t ISR:9;                      /*!< bit:  0.. 8  Exception number */
 234:C:/Users/Public/OptiSort/OptiSort/Microcontroller/Libraries/CMSIS/Include\core_cm0.h ****     uint32_t _reserved0:23;              /*!< bit:  9..31  Reserved */
 235:C:/Users/Public/OptiSort/OptiSort/Microcontroller/Libraries/CMSIS/Include\core_cm0.h ****   } b;                                   /*!< Structure used for bit  access */
 236:C:/Users/Public/OptiSort/OptiSort/Microcontroller/Libraries/CMSIS/Include\core_cm0.h ****   uint32_t w;                            /*!< Type      used for word access */
 237:C:/Users/Public/OptiSort/OptiSort/Microcontroller/Libraries/CMSIS/Include\core_cm0.h **** } IPSR_Type;
 238:C:/Users/Public/OptiSort/OptiSort/Microcontroller/Libraries/CMSIS/Include\core_cm0.h **** 
 239:C:/Users/Public/OptiSort/OptiSort/Microcontroller/Libraries/CMSIS/Include\core_cm0.h **** /* IPSR Register Definitions */
 240:C:/Users/Public/OptiSort/OptiSort/Microcontroller/Libraries/CMSIS/Include\core_cm0.h **** #define IPSR_ISR_Pos                        0U                                            /*!< IPSR
 241:C:/Users/Public/OptiSort/OptiSort/Microcontroller/Libraries/CMSIS/Include\core_cm0.h **** #define IPSR_ISR_Msk                       (0x1FFUL /*<< IPSR_ISR_Pos*/)                  /*!< IPSR
 242:C:/Users/Public/OptiSort/OptiSort/Microcontroller/Libraries/CMSIS/Include\core_cm0.h **** 
 243:C:/Users/Public/OptiSort/OptiSort/Microcontroller/Libraries/CMSIS/Include\core_cm0.h **** 
 244:C:/Users/Public/OptiSort/OptiSort/Microcontroller/Libraries/CMSIS/Include\core_cm0.h **** /**
 245:C:/Users/Public/OptiSort/OptiSort/Microcontroller/Libraries/CMSIS/Include\core_cm0.h ****   \brief  Union type to access the Special-Purpose Program Status Registers (xPSR).
 246:C:/Users/Public/OptiSort/OptiSort/Microcontroller/Libraries/CMSIS/Include\core_cm0.h ****  */
 247:C:/Users/Public/OptiSort/OptiSort/Microcontroller/Libraries/CMSIS/Include\core_cm0.h **** typedef union
 248:C:/Users/Public/OptiSort/OptiSort/Microcontroller/Libraries/CMSIS/Include\core_cm0.h **** {
 249:C:/Users/Public/OptiSort/OptiSort/Microcontroller/Libraries/CMSIS/Include\core_cm0.h ****   struct
 250:C:/Users/Public/OptiSort/OptiSort/Microcontroller/Libraries/CMSIS/Include\core_cm0.h ****   {
 251:C:/Users/Public/OptiSort/OptiSort/Microcontroller/Libraries/CMSIS/Include\core_cm0.h ****     uint32_t ISR:9;                      /*!< bit:  0.. 8  Exception number */
 252:C:/Users/Public/OptiSort/OptiSort/Microcontroller/Libraries/CMSIS/Include\core_cm0.h ****     uint32_t _reserved0:15;              /*!< bit:  9..23  Reserved */
 253:C:/Users/Public/OptiSort/OptiSort/Microcontroller/Libraries/CMSIS/Include\core_cm0.h ****     uint32_t T:1;                        /*!< bit:     24  Thumb bit        (read 0) */
 254:C:/Users/Public/OptiSort/OptiSort/Microcontroller/Libraries/CMSIS/Include\core_cm0.h ****     uint32_t _reserved1:3;               /*!< bit: 25..27  Reserved */
 255:C:/Users/Public/OptiSort/OptiSort/Microcontroller/Libraries/CMSIS/Include\core_cm0.h ****     uint32_t V:1;                        /*!< bit:     28  Overflow condition code flag */
 256:C:/Users/Public/OptiSort/OptiSort/Microcontroller/Libraries/CMSIS/Include\core_cm0.h ****     uint32_t C:1;                        /*!< bit:     29  Carry condition code flag */
 257:C:/Users/Public/OptiSort/OptiSort/Microcontroller/Libraries/CMSIS/Include\core_cm0.h ****     uint32_t Z:1;                        /*!< bit:     30  Zero condition code flag */
 258:C:/Users/Public/OptiSort/OptiSort/Microcontroller/Libraries/CMSIS/Include\core_cm0.h ****     uint32_t N:1;                        /*!< bit:     31  Negative condition code flag */
 259:C:/Users/Public/OptiSort/OptiSort/Microcontroller/Libraries/CMSIS/Include\core_cm0.h ****   } b;                                   /*!< Structure used for bit  access */
 260:C:/Users/Public/OptiSort/OptiSort/Microcontroller/Libraries/CMSIS/Include\core_cm0.h ****   uint32_t w;                            /*!< Type      used for word access */
 261:C:/Users/Public/OptiSort/OptiSort/Microcontroller/Libraries/CMSIS/Include\core_cm0.h **** } xPSR_Type;
 262:C:/Users/Public/OptiSort/OptiSort/Microcontroller/Libraries/CMSIS/Include\core_cm0.h **** 
 263:C:/Users/Public/OptiSort/OptiSort/Microcontroller/Libraries/CMSIS/Include\core_cm0.h **** /* xPSR Register Definitions */
 264:C:/Users/Public/OptiSort/OptiSort/Microcontroller/Libraries/CMSIS/Include\core_cm0.h **** #define xPSR_N_Pos                         31U                                            /*!< xPSR
 265:C:/Users/Public/OptiSort/OptiSort/Microcontroller/Libraries/CMSIS/Include\core_cm0.h **** #define xPSR_N_Msk                         (1UL << xPSR_N_Pos)                            /*!< xPSR
 266:C:/Users/Public/OptiSort/OptiSort/Microcontroller/Libraries/CMSIS/Include\core_cm0.h **** 
 267:C:/Users/Public/OptiSort/OptiSort/Microcontroller/Libraries/CMSIS/Include\core_cm0.h **** #define xPSR_Z_Pos                         30U                                            /*!< xPSR
 268:C:/Users/Public/OptiSort/OptiSort/Microcontroller/Libraries/CMSIS/Include\core_cm0.h **** #define xPSR_Z_Msk                         (1UL << xPSR_Z_Pos)                            /*!< xPSR
 269:C:/Users/Public/OptiSort/OptiSort/Microcontroller/Libraries/CMSIS/Include\core_cm0.h **** 
 270:C:/Users/Public/OptiSort/OptiSort/Microcontroller/Libraries/CMSIS/Include\core_cm0.h **** #define xPSR_C_Pos                         29U                                            /*!< xPSR
 271:C:/Users/Public/OptiSort/OptiSort/Microcontroller/Libraries/CMSIS/Include\core_cm0.h **** #define xPSR_C_Msk                         (1UL << xPSR_C_Pos)                            /*!< xPSR
 272:C:/Users/Public/OptiSort/OptiSort/Microcontroller/Libraries/CMSIS/Include\core_cm0.h **** 
 273:C:/Users/Public/OptiSort/OptiSort/Microcontroller/Libraries/CMSIS/Include\core_cm0.h **** #define xPSR_V_Pos                         28U                                            /*!< xPSR
 274:C:/Users/Public/OptiSort/OptiSort/Microcontroller/Libraries/CMSIS/Include\core_cm0.h **** #define xPSR_V_Msk                         (1UL << xPSR_V_Pos)                            /*!< xPSR
 275:C:/Users/Public/OptiSort/OptiSort/Microcontroller/Libraries/CMSIS/Include\core_cm0.h **** 
 276:C:/Users/Public/OptiSort/OptiSort/Microcontroller/Libraries/CMSIS/Include\core_cm0.h **** #define xPSR_T_Pos                         24U                                            /*!< xPSR
 277:C:/Users/Public/OptiSort/OptiSort/Microcontroller/Libraries/CMSIS/Include\core_cm0.h **** #define xPSR_T_Msk                         (1UL << xPSR_T_Pos)                            /*!< xPSR
 278:C:/Users/Public/OptiSort/OptiSort/Microcontroller/Libraries/CMSIS/Include\core_cm0.h **** 
 279:C:/Users/Public/OptiSort/OptiSort/Microcontroller/Libraries/CMSIS/Include\core_cm0.h **** #define xPSR_ISR_Pos                        0U                                            /*!< xPSR
 280:C:/Users/Public/OptiSort/OptiSort/Microcontroller/Libraries/CMSIS/Include\core_cm0.h **** #define xPSR_ISR_Msk                       (0x1FFUL /*<< xPSR_ISR_Pos*/)                  /*!< xPSR
 281:C:/Users/Public/OptiSort/OptiSort/Microcontroller/Libraries/CMSIS/Include\core_cm0.h **** 
 282:C:/Users/Public/OptiSort/OptiSort/Microcontroller/Libraries/CMSIS/Include\core_cm0.h **** 
 283:C:/Users/Public/OptiSort/OptiSort/Microcontroller/Libraries/CMSIS/Include\core_cm0.h **** /**
 284:C:/Users/Public/OptiSort/OptiSort/Microcontroller/Libraries/CMSIS/Include\core_cm0.h ****   \brief  Union type to access the Control Registers (CONTROL).
 285:C:/Users/Public/OptiSort/OptiSort/Microcontroller/Libraries/CMSIS/Include\core_cm0.h ****  */
 286:C:/Users/Public/OptiSort/OptiSort/Microcontroller/Libraries/CMSIS/Include\core_cm0.h **** typedef union
 287:C:/Users/Public/OptiSort/OptiSort/Microcontroller/Libraries/CMSIS/Include\core_cm0.h **** {
 288:C:/Users/Public/OptiSort/OptiSort/Microcontroller/Libraries/CMSIS/Include\core_cm0.h ****   struct
 289:C:/Users/Public/OptiSort/OptiSort/Microcontroller/Libraries/CMSIS/Include\core_cm0.h ****   {
 290:C:/Users/Public/OptiSort/OptiSort/Microcontroller/Libraries/CMSIS/Include\core_cm0.h ****     uint32_t _reserved0:1;               /*!< bit:      0  Reserved */
 291:C:/Users/Public/OptiSort/OptiSort/Microcontroller/Libraries/CMSIS/Include\core_cm0.h ****     uint32_t SPSEL:1;                    /*!< bit:      1  Stack to be used */
 292:C:/Users/Public/OptiSort/OptiSort/Microcontroller/Libraries/CMSIS/Include\core_cm0.h ****     uint32_t _reserved1:30;              /*!< bit:  2..31  Reserved */
 293:C:/Users/Public/OptiSort/OptiSort/Microcontroller/Libraries/CMSIS/Include\core_cm0.h ****   } b;                                   /*!< Structure used for bit  access */
 294:C:/Users/Public/OptiSort/OptiSort/Microcontroller/Libraries/CMSIS/Include\core_cm0.h ****   uint32_t w;                            /*!< Type      used for word access */
 295:C:/Users/Public/OptiSort/OptiSort/Microcontroller/Libraries/CMSIS/Include\core_cm0.h **** } CONTROL_Type;
 296:C:/Users/Public/OptiSort/OptiSort/Microcontroller/Libraries/CMSIS/Include\core_cm0.h **** 
 297:C:/Users/Public/OptiSort/OptiSort/Microcontroller/Libraries/CMSIS/Include\core_cm0.h **** /* CONTROL Register Definitions */
 298:C:/Users/Public/OptiSort/OptiSort/Microcontroller/Libraries/CMSIS/Include\core_cm0.h **** #define CONTROL_SPSEL_Pos                   1U                                            /*!< CONT
 299:C:/Users/Public/OptiSort/OptiSort/Microcontroller/Libraries/CMSIS/Include\core_cm0.h **** #define CONTROL_SPSEL_Msk                  (1UL << CONTROL_SPSEL_Pos)                     /*!< CONT
 300:C:/Users/Public/OptiSort/OptiSort/Microcontroller/Libraries/CMSIS/Include\core_cm0.h **** 
 301:C:/Users/Public/OptiSort/OptiSort/Microcontroller/Libraries/CMSIS/Include\core_cm0.h **** /*@} end of group CMSIS_CORE */
 302:C:/Users/Public/OptiSort/OptiSort/Microcontroller/Libraries/CMSIS/Include\core_cm0.h **** 
 303:C:/Users/Public/OptiSort/OptiSort/Microcontroller/Libraries/CMSIS/Include\core_cm0.h **** 
 304:C:/Users/Public/OptiSort/OptiSort/Microcontroller/Libraries/CMSIS/Include\core_cm0.h **** /**
 305:C:/Users/Public/OptiSort/OptiSort/Microcontroller/Libraries/CMSIS/Include\core_cm0.h ****   \ingroup    CMSIS_core_register
 306:C:/Users/Public/OptiSort/OptiSort/Microcontroller/Libraries/CMSIS/Include\core_cm0.h ****   \defgroup   CMSIS_NVIC  Nested Vectored Interrupt Controller (NVIC)
 307:C:/Users/Public/OptiSort/OptiSort/Microcontroller/Libraries/CMSIS/Include\core_cm0.h ****   \brief      Type definitions for the NVIC Registers
 308:C:/Users/Public/OptiSort/OptiSort/Microcontroller/Libraries/CMSIS/Include\core_cm0.h ****   @{
 309:C:/Users/Public/OptiSort/OptiSort/Microcontroller/Libraries/CMSIS/Include\core_cm0.h ****  */
 310:C:/Users/Public/OptiSort/OptiSort/Microcontroller/Libraries/CMSIS/Include\core_cm0.h **** 
 311:C:/Users/Public/OptiSort/OptiSort/Microcontroller/Libraries/CMSIS/Include\core_cm0.h **** /**
 312:C:/Users/Public/OptiSort/OptiSort/Microcontroller/Libraries/CMSIS/Include\core_cm0.h ****   \brief  Structure type to access the Nested Vectored Interrupt Controller (NVIC).
 313:C:/Users/Public/OptiSort/OptiSort/Microcontroller/Libraries/CMSIS/Include\core_cm0.h ****  */
 314:C:/Users/Public/OptiSort/OptiSort/Microcontroller/Libraries/CMSIS/Include\core_cm0.h **** typedef struct
 315:C:/Users/Public/OptiSort/OptiSort/Microcontroller/Libraries/CMSIS/Include\core_cm0.h **** {
 316:C:/Users/Public/OptiSort/OptiSort/Microcontroller/Libraries/CMSIS/Include\core_cm0.h ****   __IOM uint32_t ISER[1U];               /*!< Offset: 0x000 (R/W)  Interrupt Set Enable Register */
 317:C:/Users/Public/OptiSort/OptiSort/Microcontroller/Libraries/CMSIS/Include\core_cm0.h ****         uint32_t RESERVED0[31U];
 318:C:/Users/Public/OptiSort/OptiSort/Microcontroller/Libraries/CMSIS/Include\core_cm0.h ****   __IOM uint32_t ICER[1U];               /*!< Offset: 0x080 (R/W)  Interrupt Clear Enable Register 
 319:C:/Users/Public/OptiSort/OptiSort/Microcontroller/Libraries/CMSIS/Include\core_cm0.h ****         uint32_t RSERVED1[31U];
 320:C:/Users/Public/OptiSort/OptiSort/Microcontroller/Libraries/CMSIS/Include\core_cm0.h ****   __IOM uint32_t ISPR[1U];               /*!< Offset: 0x100 (R/W)  Interrupt Set Pending Register *
 321:C:/Users/Public/OptiSort/OptiSort/Microcontroller/Libraries/CMSIS/Include\core_cm0.h ****         uint32_t RESERVED2[31U];
 322:C:/Users/Public/OptiSort/OptiSort/Microcontroller/Libraries/CMSIS/Include\core_cm0.h ****   __IOM uint32_t ICPR[1U];               /*!< Offset: 0x180 (R/W)  Interrupt Clear Pending Register
 323:C:/Users/Public/OptiSort/OptiSort/Microcontroller/Libraries/CMSIS/Include\core_cm0.h ****         uint32_t RESERVED3[31U];
 324:C:/Users/Public/OptiSort/OptiSort/Microcontroller/Libraries/CMSIS/Include\core_cm0.h ****         uint32_t RESERVED4[64U];
 325:C:/Users/Public/OptiSort/OptiSort/Microcontroller/Libraries/CMSIS/Include\core_cm0.h ****   __IOM uint32_t IP[8U];                 /*!< Offset: 0x300 (R/W)  Interrupt Priority Register */
 326:C:/Users/Public/OptiSort/OptiSort/Microcontroller/Libraries/CMSIS/Include\core_cm0.h **** }  NVIC_Type;
 327:C:/Users/Public/OptiSort/OptiSort/Microcontroller/Libraries/CMSIS/Include\core_cm0.h **** 
 328:C:/Users/Public/OptiSort/OptiSort/Microcontroller/Libraries/CMSIS/Include\core_cm0.h **** /*@} end of group CMSIS_NVIC */
 329:C:/Users/Public/OptiSort/OptiSort/Microcontroller/Libraries/CMSIS/Include\core_cm0.h **** 
 330:C:/Users/Public/OptiSort/OptiSort/Microcontroller/Libraries/CMSIS/Include\core_cm0.h **** 
 331:C:/Users/Public/OptiSort/OptiSort/Microcontroller/Libraries/CMSIS/Include\core_cm0.h **** /**
 332:C:/Users/Public/OptiSort/OptiSort/Microcontroller/Libraries/CMSIS/Include\core_cm0.h ****   \ingroup  CMSIS_core_register
 333:C:/Users/Public/OptiSort/OptiSort/Microcontroller/Libraries/CMSIS/Include\core_cm0.h ****   \defgroup CMSIS_SCB     System Control Block (SCB)
 334:C:/Users/Public/OptiSort/OptiSort/Microcontroller/Libraries/CMSIS/Include\core_cm0.h ****   \brief    Type definitions for the System Control Block Registers
 335:C:/Users/Public/OptiSort/OptiSort/Microcontroller/Libraries/CMSIS/Include\core_cm0.h ****   @{
 336:C:/Users/Public/OptiSort/OptiSort/Microcontroller/Libraries/CMSIS/Include\core_cm0.h ****  */
 337:C:/Users/Public/OptiSort/OptiSort/Microcontroller/Libraries/CMSIS/Include\core_cm0.h **** 
 338:C:/Users/Public/OptiSort/OptiSort/Microcontroller/Libraries/CMSIS/Include\core_cm0.h **** /**
 339:C:/Users/Public/OptiSort/OptiSort/Microcontroller/Libraries/CMSIS/Include\core_cm0.h ****   \brief  Structure type to access the System Control Block (SCB).
 340:C:/Users/Public/OptiSort/OptiSort/Microcontroller/Libraries/CMSIS/Include\core_cm0.h ****  */
 341:C:/Users/Public/OptiSort/OptiSort/Microcontroller/Libraries/CMSIS/Include\core_cm0.h **** typedef struct
 342:C:/Users/Public/OptiSort/OptiSort/Microcontroller/Libraries/CMSIS/Include\core_cm0.h **** {
 343:C:/Users/Public/OptiSort/OptiSort/Microcontroller/Libraries/CMSIS/Include\core_cm0.h ****   __IM  uint32_t CPUID;                  /*!< Offset: 0x000 (R/ )  CPUID Base Register */
 344:C:/Users/Public/OptiSort/OptiSort/Microcontroller/Libraries/CMSIS/Include\core_cm0.h ****   __IOM uint32_t ICSR;                   /*!< Offset: 0x004 (R/W)  Interrupt Control and State Regi
 345:C:/Users/Public/OptiSort/OptiSort/Microcontroller/Libraries/CMSIS/Include\core_cm0.h ****         uint32_t RESERVED0;
 346:C:/Users/Public/OptiSort/OptiSort/Microcontroller/Libraries/CMSIS/Include\core_cm0.h ****   __IOM uint32_t AIRCR;                  /*!< Offset: 0x00C (R/W)  Application Interrupt and Reset 
 347:C:/Users/Public/OptiSort/OptiSort/Microcontroller/Libraries/CMSIS/Include\core_cm0.h ****   __IOM uint32_t SCR;                    /*!< Offset: 0x010 (R/W)  System Control Register */
 348:C:/Users/Public/OptiSort/OptiSort/Microcontroller/Libraries/CMSIS/Include\core_cm0.h ****   __IOM uint32_t CCR;                    /*!< Offset: 0x014 (R/W)  Configuration Control Register *
 349:C:/Users/Public/OptiSort/OptiSort/Microcontroller/Libraries/CMSIS/Include\core_cm0.h ****         uint32_t RESERVED1;
 350:C:/Users/Public/OptiSort/OptiSort/Microcontroller/Libraries/CMSIS/Include\core_cm0.h ****   __IOM uint32_t SHP[2U];                /*!< Offset: 0x01C (R/W)  System Handlers Priority Registe
 351:C:/Users/Public/OptiSort/OptiSort/Microcontroller/Libraries/CMSIS/Include\core_cm0.h ****   __IOM uint32_t SHCSR;                  /*!< Offset: 0x024 (R/W)  System Handler Control and State
 352:C:/Users/Public/OptiSort/OptiSort/Microcontroller/Libraries/CMSIS/Include\core_cm0.h **** } SCB_Type;
 353:C:/Users/Public/OptiSort/OptiSort/Microcontroller/Libraries/CMSIS/Include\core_cm0.h **** 
 354:C:/Users/Public/OptiSort/OptiSort/Microcontroller/Libraries/CMSIS/Include\core_cm0.h **** /* SCB CPUID Register Definitions */
 355:C:/Users/Public/OptiSort/OptiSort/Microcontroller/Libraries/CMSIS/Include\core_cm0.h **** #define SCB_CPUID_IMPLEMENTER_Pos          24U                                            /*!< SCB 
 356:C:/Users/Public/OptiSort/OptiSort/Microcontroller/Libraries/CMSIS/Include\core_cm0.h **** #define SCB_CPUID_IMPLEMENTER_Msk          (0xFFUL << SCB_CPUID_IMPLEMENTER_Pos)          /*!< SCB 
 357:C:/Users/Public/OptiSort/OptiSort/Microcontroller/Libraries/CMSIS/Include\core_cm0.h **** 
 358:C:/Users/Public/OptiSort/OptiSort/Microcontroller/Libraries/CMSIS/Include\core_cm0.h **** #define SCB_CPUID_VARIANT_Pos              20U                                            /*!< SCB 
 359:C:/Users/Public/OptiSort/OptiSort/Microcontroller/Libraries/CMSIS/Include\core_cm0.h **** #define SCB_CPUID_VARIANT_Msk              (0xFUL << SCB_CPUID_VARIANT_Pos)               /*!< SCB 
 360:C:/Users/Public/OptiSort/OptiSort/Microcontroller/Libraries/CMSIS/Include\core_cm0.h **** 
 361:C:/Users/Public/OptiSort/OptiSort/Microcontroller/Libraries/CMSIS/Include\core_cm0.h **** #define SCB_CPUID_ARCHITECTURE_Pos         16U                                            /*!< SCB 
 362:C:/Users/Public/OptiSort/OptiSort/Microcontroller/Libraries/CMSIS/Include\core_cm0.h **** #define SCB_CPUID_ARCHITECTURE_Msk         (0xFUL << SCB_CPUID_ARCHITECTURE_Pos)          /*!< SCB 
 363:C:/Users/Public/OptiSort/OptiSort/Microcontroller/Libraries/CMSIS/Include\core_cm0.h **** 
 364:C:/Users/Public/OptiSort/OptiSort/Microcontroller/Libraries/CMSIS/Include\core_cm0.h **** #define SCB_CPUID_PARTNO_Pos                4U                                            /*!< SCB 
 365:C:/Users/Public/OptiSort/OptiSort/Microcontroller/Libraries/CMSIS/Include\core_cm0.h **** #define SCB_CPUID_PARTNO_Msk               (0xFFFUL << SCB_CPUID_PARTNO_Pos)              /*!< SCB 
 366:C:/Users/Public/OptiSort/OptiSort/Microcontroller/Libraries/CMSIS/Include\core_cm0.h **** 
 367:C:/Users/Public/OptiSort/OptiSort/Microcontroller/Libraries/CMSIS/Include\core_cm0.h **** #define SCB_CPUID_REVISION_Pos              0U                                            /*!< SCB 
 368:C:/Users/Public/OptiSort/OptiSort/Microcontroller/Libraries/CMSIS/Include\core_cm0.h **** #define SCB_CPUID_REVISION_Msk             (0xFUL /*<< SCB_CPUID_REVISION_Pos*/)          /*!< SCB 
 369:C:/Users/Public/OptiSort/OptiSort/Microcontroller/Libraries/CMSIS/Include\core_cm0.h **** 
 370:C:/Users/Public/OptiSort/OptiSort/Microcontroller/Libraries/CMSIS/Include\core_cm0.h **** /* SCB Interrupt Control State Register Definitions */
 371:C:/Users/Public/OptiSort/OptiSort/Microcontroller/Libraries/CMSIS/Include\core_cm0.h **** #define SCB_ICSR_NMIPENDSET_Pos            31U                                            /*!< SCB 
 372:C:/Users/Public/OptiSort/OptiSort/Microcontroller/Libraries/CMSIS/Include\core_cm0.h **** #define SCB_ICSR_NMIPENDSET_Msk            (1UL << SCB_ICSR_NMIPENDSET_Pos)               /*!< SCB 
 373:C:/Users/Public/OptiSort/OptiSort/Microcontroller/Libraries/CMSIS/Include\core_cm0.h **** 
 374:C:/Users/Public/OptiSort/OptiSort/Microcontroller/Libraries/CMSIS/Include\core_cm0.h **** #define SCB_ICSR_PENDSVSET_Pos             28U                                            /*!< SCB 
 375:C:/Users/Public/OptiSort/OptiSort/Microcontroller/Libraries/CMSIS/Include\core_cm0.h **** #define SCB_ICSR_PENDSVSET_Msk             (1UL << SCB_ICSR_PENDSVSET_Pos)                /*!< SCB 
 376:C:/Users/Public/OptiSort/OptiSort/Microcontroller/Libraries/CMSIS/Include\core_cm0.h **** 
 377:C:/Users/Public/OptiSort/OptiSort/Microcontroller/Libraries/CMSIS/Include\core_cm0.h **** #define SCB_ICSR_PENDSVCLR_Pos             27U                                            /*!< SCB 
 378:C:/Users/Public/OptiSort/OptiSort/Microcontroller/Libraries/CMSIS/Include\core_cm0.h **** #define SCB_ICSR_PENDSVCLR_Msk             (1UL << SCB_ICSR_PENDSVCLR_Pos)                /*!< SCB 
 379:C:/Users/Public/OptiSort/OptiSort/Microcontroller/Libraries/CMSIS/Include\core_cm0.h **** 
 380:C:/Users/Public/OptiSort/OptiSort/Microcontroller/Libraries/CMSIS/Include\core_cm0.h **** #define SCB_ICSR_PENDSTSET_Pos             26U                                            /*!< SCB 
 381:C:/Users/Public/OptiSort/OptiSort/Microcontroller/Libraries/CMSIS/Include\core_cm0.h **** #define SCB_ICSR_PENDSTSET_Msk             (1UL << SCB_ICSR_PENDSTSET_Pos)                /*!< SCB 
 382:C:/Users/Public/OptiSort/OptiSort/Microcontroller/Libraries/CMSIS/Include\core_cm0.h **** 
 383:C:/Users/Public/OptiSort/OptiSort/Microcontroller/Libraries/CMSIS/Include\core_cm0.h **** #define SCB_ICSR_PENDSTCLR_Pos             25U                                            /*!< SCB 
 384:C:/Users/Public/OptiSort/OptiSort/Microcontroller/Libraries/CMSIS/Include\core_cm0.h **** #define SCB_ICSR_PENDSTCLR_Msk             (1UL << SCB_ICSR_PENDSTCLR_Pos)                /*!< SCB 
 385:C:/Users/Public/OptiSort/OptiSort/Microcontroller/Libraries/CMSIS/Include\core_cm0.h **** 
 386:C:/Users/Public/OptiSort/OptiSort/Microcontroller/Libraries/CMSIS/Include\core_cm0.h **** #define SCB_ICSR_ISRPREEMPT_Pos            23U                                            /*!< SCB 
 387:C:/Users/Public/OptiSort/OptiSort/Microcontroller/Libraries/CMSIS/Include\core_cm0.h **** #define SCB_ICSR_ISRPREEMPT_Msk            (1UL << SCB_ICSR_ISRPREEMPT_Pos)               /*!< SCB 
 388:C:/Users/Public/OptiSort/OptiSort/Microcontroller/Libraries/CMSIS/Include\core_cm0.h **** 
 389:C:/Users/Public/OptiSort/OptiSort/Microcontroller/Libraries/CMSIS/Include\core_cm0.h **** #define SCB_ICSR_ISRPENDING_Pos            22U                                            /*!< SCB 
 390:C:/Users/Public/OptiSort/OptiSort/Microcontroller/Libraries/CMSIS/Include\core_cm0.h **** #define SCB_ICSR_ISRPENDING_Msk            (1UL << SCB_ICSR_ISRPENDING_Pos)               /*!< SCB 
 391:C:/Users/Public/OptiSort/OptiSort/Microcontroller/Libraries/CMSIS/Include\core_cm0.h **** 
 392:C:/Users/Public/OptiSort/OptiSort/Microcontroller/Libraries/CMSIS/Include\core_cm0.h **** #define SCB_ICSR_VECTPENDING_Pos           12U                                            /*!< SCB 
 393:C:/Users/Public/OptiSort/OptiSort/Microcontroller/Libraries/CMSIS/Include\core_cm0.h **** #define SCB_ICSR_VECTPENDING_Msk           (0x1FFUL << SCB_ICSR_VECTPENDING_Pos)          /*!< SCB 
 394:C:/Users/Public/OptiSort/OptiSort/Microcontroller/Libraries/CMSIS/Include\core_cm0.h **** 
 395:C:/Users/Public/OptiSort/OptiSort/Microcontroller/Libraries/CMSIS/Include\core_cm0.h **** #define SCB_ICSR_VECTACTIVE_Pos             0U                                            /*!< SCB 
 396:C:/Users/Public/OptiSort/OptiSort/Microcontroller/Libraries/CMSIS/Include\core_cm0.h **** #define SCB_ICSR_VECTACTIVE_Msk            (0x1FFUL /*<< SCB_ICSR_VECTACTIVE_Pos*/)       /*!< SCB 
 397:C:/Users/Public/OptiSort/OptiSort/Microcontroller/Libraries/CMSIS/Include\core_cm0.h **** 
 398:C:/Users/Public/OptiSort/OptiSort/Microcontroller/Libraries/CMSIS/Include\core_cm0.h **** /* SCB Application Interrupt and Reset Control Register Definitions */
 399:C:/Users/Public/OptiSort/OptiSort/Microcontroller/Libraries/CMSIS/Include\core_cm0.h **** #define SCB_AIRCR_VECTKEY_Pos              16U                                            /*!< SCB 
 400:C:/Users/Public/OptiSort/OptiSort/Microcontroller/Libraries/CMSIS/Include\core_cm0.h **** #define SCB_AIRCR_VECTKEY_Msk              (0xFFFFUL << SCB_AIRCR_VECTKEY_Pos)            /*!< SCB 
 401:C:/Users/Public/OptiSort/OptiSort/Microcontroller/Libraries/CMSIS/Include\core_cm0.h **** 
 402:C:/Users/Public/OptiSort/OptiSort/Microcontroller/Libraries/CMSIS/Include\core_cm0.h **** #define SCB_AIRCR_VECTKEYSTAT_Pos          16U                                            /*!< SCB 
 403:C:/Users/Public/OptiSort/OptiSort/Microcontroller/Libraries/CMSIS/Include\core_cm0.h **** #define SCB_AIRCR_VECTKEYSTAT_Msk          (0xFFFFUL << SCB_AIRCR_VECTKEYSTAT_Pos)        /*!< SCB 
 404:C:/Users/Public/OptiSort/OptiSort/Microcontroller/Libraries/CMSIS/Include\core_cm0.h **** 
 405:C:/Users/Public/OptiSort/OptiSort/Microcontroller/Libraries/CMSIS/Include\core_cm0.h **** #define SCB_AIRCR_ENDIANESS_Pos            15U                                            /*!< SCB 
 406:C:/Users/Public/OptiSort/OptiSort/Microcontroller/Libraries/CMSIS/Include\core_cm0.h **** #define SCB_AIRCR_ENDIANESS_Msk            (1UL << SCB_AIRCR_ENDIANESS_Pos)               /*!< SCB 
 407:C:/Users/Public/OptiSort/OptiSort/Microcontroller/Libraries/CMSIS/Include\core_cm0.h **** 
 408:C:/Users/Public/OptiSort/OptiSort/Microcontroller/Libraries/CMSIS/Include\core_cm0.h **** #define SCB_AIRCR_SYSRESETREQ_Pos           2U                                            /*!< SCB 
 409:C:/Users/Public/OptiSort/OptiSort/Microcontroller/Libraries/CMSIS/Include\core_cm0.h **** #define SCB_AIRCR_SYSRESETREQ_Msk          (1UL << SCB_AIRCR_SYSRESETREQ_Pos)             /*!< SCB 
 410:C:/Users/Public/OptiSort/OptiSort/Microcontroller/Libraries/CMSIS/Include\core_cm0.h **** 
 411:C:/Users/Public/OptiSort/OptiSort/Microcontroller/Libraries/CMSIS/Include\core_cm0.h **** #define SCB_AIRCR_VECTCLRACTIVE_Pos         1U                                            /*!< SCB 
 412:C:/Users/Public/OptiSort/OptiSort/Microcontroller/Libraries/CMSIS/Include\core_cm0.h **** #define SCB_AIRCR_VECTCLRACTIVE_Msk        (1UL << SCB_AIRCR_VECTCLRACTIVE_Pos)           /*!< SCB 
 413:C:/Users/Public/OptiSort/OptiSort/Microcontroller/Libraries/CMSIS/Include\core_cm0.h **** 
 414:C:/Users/Public/OptiSort/OptiSort/Microcontroller/Libraries/CMSIS/Include\core_cm0.h **** /* SCB System Control Register Definitions */
 415:C:/Users/Public/OptiSort/OptiSort/Microcontroller/Libraries/CMSIS/Include\core_cm0.h **** #define SCB_SCR_SEVONPEND_Pos               4U                                            /*!< SCB 
 416:C:/Users/Public/OptiSort/OptiSort/Microcontroller/Libraries/CMSIS/Include\core_cm0.h **** #define SCB_SCR_SEVONPEND_Msk              (1UL << SCB_SCR_SEVONPEND_Pos)                 /*!< SCB 
 417:C:/Users/Public/OptiSort/OptiSort/Microcontroller/Libraries/CMSIS/Include\core_cm0.h **** 
 418:C:/Users/Public/OptiSort/OptiSort/Microcontroller/Libraries/CMSIS/Include\core_cm0.h **** #define SCB_SCR_SLEEPDEEP_Pos               2U                                            /*!< SCB 
 419:C:/Users/Public/OptiSort/OptiSort/Microcontroller/Libraries/CMSIS/Include\core_cm0.h **** #define SCB_SCR_SLEEPDEEP_Msk              (1UL << SCB_SCR_SLEEPDEEP_Pos)                 /*!< SCB 
 420:C:/Users/Public/OptiSort/OptiSort/Microcontroller/Libraries/CMSIS/Include\core_cm0.h **** 
 421:C:/Users/Public/OptiSort/OptiSort/Microcontroller/Libraries/CMSIS/Include\core_cm0.h **** #define SCB_SCR_SLEEPONEXIT_Pos             1U                                            /*!< SCB 
 422:C:/Users/Public/OptiSort/OptiSort/Microcontroller/Libraries/CMSIS/Include\core_cm0.h **** #define SCB_SCR_SLEEPONEXIT_Msk            (1UL << SCB_SCR_SLEEPONEXIT_Pos)               /*!< SCB 
 423:C:/Users/Public/OptiSort/OptiSort/Microcontroller/Libraries/CMSIS/Include\core_cm0.h **** 
 424:C:/Users/Public/OptiSort/OptiSort/Microcontroller/Libraries/CMSIS/Include\core_cm0.h **** /* SCB Configuration Control Register Definitions */
 425:C:/Users/Public/OptiSort/OptiSort/Microcontroller/Libraries/CMSIS/Include\core_cm0.h **** #define SCB_CCR_STKALIGN_Pos                9U                                            /*!< SCB 
 426:C:/Users/Public/OptiSort/OptiSort/Microcontroller/Libraries/CMSIS/Include\core_cm0.h **** #define SCB_CCR_STKALIGN_Msk               (1UL << SCB_CCR_STKALIGN_Pos)                  /*!< SCB 
 427:C:/Users/Public/OptiSort/OptiSort/Microcontroller/Libraries/CMSIS/Include\core_cm0.h **** 
 428:C:/Users/Public/OptiSort/OptiSort/Microcontroller/Libraries/CMSIS/Include\core_cm0.h **** #define SCB_CCR_UNALIGN_TRP_Pos             3U                                            /*!< SCB 
 429:C:/Users/Public/OptiSort/OptiSort/Microcontroller/Libraries/CMSIS/Include\core_cm0.h **** #define SCB_CCR_UNALIGN_TRP_Msk            (1UL << SCB_CCR_UNALIGN_TRP_Pos)               /*!< SCB 
 430:C:/Users/Public/OptiSort/OptiSort/Microcontroller/Libraries/CMSIS/Include\core_cm0.h **** 
 431:C:/Users/Public/OptiSort/OptiSort/Microcontroller/Libraries/CMSIS/Include\core_cm0.h **** /* SCB System Handler Control and State Register Definitions */
 432:C:/Users/Public/OptiSort/OptiSort/Microcontroller/Libraries/CMSIS/Include\core_cm0.h **** #define SCB_SHCSR_SVCALLPENDED_Pos         15U                                            /*!< SCB 
 433:C:/Users/Public/OptiSort/OptiSort/Microcontroller/Libraries/CMSIS/Include\core_cm0.h **** #define SCB_SHCSR_SVCALLPENDED_Msk         (1UL << SCB_SHCSR_SVCALLPENDED_Pos)            /*!< SCB 
 434:C:/Users/Public/OptiSort/OptiSort/Microcontroller/Libraries/CMSIS/Include\core_cm0.h **** 
 435:C:/Users/Public/OptiSort/OptiSort/Microcontroller/Libraries/CMSIS/Include\core_cm0.h **** /*@} end of group CMSIS_SCB */
 436:C:/Users/Public/OptiSort/OptiSort/Microcontroller/Libraries/CMSIS/Include\core_cm0.h **** 
 437:C:/Users/Public/OptiSort/OptiSort/Microcontroller/Libraries/CMSIS/Include\core_cm0.h **** 
 438:C:/Users/Public/OptiSort/OptiSort/Microcontroller/Libraries/CMSIS/Include\core_cm0.h **** /**
 439:C:/Users/Public/OptiSort/OptiSort/Microcontroller/Libraries/CMSIS/Include\core_cm0.h ****   \ingroup  CMSIS_core_register
 440:C:/Users/Public/OptiSort/OptiSort/Microcontroller/Libraries/CMSIS/Include\core_cm0.h ****   \defgroup CMSIS_SysTick     System Tick Timer (SysTick)
 441:C:/Users/Public/OptiSort/OptiSort/Microcontroller/Libraries/CMSIS/Include\core_cm0.h ****   \brief    Type definitions for the System Timer Registers.
 442:C:/Users/Public/OptiSort/OptiSort/Microcontroller/Libraries/CMSIS/Include\core_cm0.h ****   @{
 443:C:/Users/Public/OptiSort/OptiSort/Microcontroller/Libraries/CMSIS/Include\core_cm0.h ****  */
 444:C:/Users/Public/OptiSort/OptiSort/Microcontroller/Libraries/CMSIS/Include\core_cm0.h **** 
 445:C:/Users/Public/OptiSort/OptiSort/Microcontroller/Libraries/CMSIS/Include\core_cm0.h **** /**
 446:C:/Users/Public/OptiSort/OptiSort/Microcontroller/Libraries/CMSIS/Include\core_cm0.h ****   \brief  Structure type to access the System Timer (SysTick).
 447:C:/Users/Public/OptiSort/OptiSort/Microcontroller/Libraries/CMSIS/Include\core_cm0.h ****  */
 448:C:/Users/Public/OptiSort/OptiSort/Microcontroller/Libraries/CMSIS/Include\core_cm0.h **** typedef struct
 449:C:/Users/Public/OptiSort/OptiSort/Microcontroller/Libraries/CMSIS/Include\core_cm0.h **** {
 450:C:/Users/Public/OptiSort/OptiSort/Microcontroller/Libraries/CMSIS/Include\core_cm0.h ****   __IOM uint32_t CTRL;                   /*!< Offset: 0x000 (R/W)  SysTick Control and Status Regis
 451:C:/Users/Public/OptiSort/OptiSort/Microcontroller/Libraries/CMSIS/Include\core_cm0.h ****   __IOM uint32_t LOAD;                   /*!< Offset: 0x004 (R/W)  SysTick Reload Value Register */
 452:C:/Users/Public/OptiSort/OptiSort/Microcontroller/Libraries/CMSIS/Include\core_cm0.h ****   __IOM uint32_t VAL;                    /*!< Offset: 0x008 (R/W)  SysTick Current Value Register *
 453:C:/Users/Public/OptiSort/OptiSort/Microcontroller/Libraries/CMSIS/Include\core_cm0.h ****   __IM  uint32_t CALIB;                  /*!< Offset: 0x00C (R/ )  SysTick Calibration Register */
 454:C:/Users/Public/OptiSort/OptiSort/Microcontroller/Libraries/CMSIS/Include\core_cm0.h **** } SysTick_Type;
 455:C:/Users/Public/OptiSort/OptiSort/Microcontroller/Libraries/CMSIS/Include\core_cm0.h **** 
 456:C:/Users/Public/OptiSort/OptiSort/Microcontroller/Libraries/CMSIS/Include\core_cm0.h **** /* SysTick Control / Status Register Definitions */
 457:C:/Users/Public/OptiSort/OptiSort/Microcontroller/Libraries/CMSIS/Include\core_cm0.h **** #define SysTick_CTRL_COUNTFLAG_Pos         16U                                            /*!< SysT
 458:C:/Users/Public/OptiSort/OptiSort/Microcontroller/Libraries/CMSIS/Include\core_cm0.h **** #define SysTick_CTRL_COUNTFLAG_Msk         (1UL << SysTick_CTRL_COUNTFLAG_Pos)            /*!< SysT
 459:C:/Users/Public/OptiSort/OptiSort/Microcontroller/Libraries/CMSIS/Include\core_cm0.h **** 
 460:C:/Users/Public/OptiSort/OptiSort/Microcontroller/Libraries/CMSIS/Include\core_cm0.h **** #define SysTick_CTRL_CLKSOURCE_Pos          2U                                            /*!< SysT
 461:C:/Users/Public/OptiSort/OptiSort/Microcontroller/Libraries/CMSIS/Include\core_cm0.h **** #define SysTick_CTRL_CLKSOURCE_Msk         (1UL << SysTick_CTRL_CLKSOURCE_Pos)            /*!< SysT
 462:C:/Users/Public/OptiSort/OptiSort/Microcontroller/Libraries/CMSIS/Include\core_cm0.h **** 
 463:C:/Users/Public/OptiSort/OptiSort/Microcontroller/Libraries/CMSIS/Include\core_cm0.h **** #define SysTick_CTRL_TICKINT_Pos            1U                                            /*!< SysT
 464:C:/Users/Public/OptiSort/OptiSort/Microcontroller/Libraries/CMSIS/Include\core_cm0.h **** #define SysTick_CTRL_TICKINT_Msk           (1UL << SysTick_CTRL_TICKINT_Pos)              /*!< SysT
 465:C:/Users/Public/OptiSort/OptiSort/Microcontroller/Libraries/CMSIS/Include\core_cm0.h **** 
 466:C:/Users/Public/OptiSort/OptiSort/Microcontroller/Libraries/CMSIS/Include\core_cm0.h **** #define SysTick_CTRL_ENABLE_Pos             0U                                            /*!< SysT
 467:C:/Users/Public/OptiSort/OptiSort/Microcontroller/Libraries/CMSIS/Include\core_cm0.h **** #define SysTick_CTRL_ENABLE_Msk            (1UL /*<< SysTick_CTRL_ENABLE_Pos*/)           /*!< SysT
 468:C:/Users/Public/OptiSort/OptiSort/Microcontroller/Libraries/CMSIS/Include\core_cm0.h **** 
 469:C:/Users/Public/OptiSort/OptiSort/Microcontroller/Libraries/CMSIS/Include\core_cm0.h **** /* SysTick Reload Register Definitions */
 470:C:/Users/Public/OptiSort/OptiSort/Microcontroller/Libraries/CMSIS/Include\core_cm0.h **** #define SysTick_LOAD_RELOAD_Pos             0U                                            /*!< SysT
 471:C:/Users/Public/OptiSort/OptiSort/Microcontroller/Libraries/CMSIS/Include\core_cm0.h **** #define SysTick_LOAD_RELOAD_Msk            (0xFFFFFFUL /*<< SysTick_LOAD_RELOAD_Pos*/)    /*!< SysT
 472:C:/Users/Public/OptiSort/OptiSort/Microcontroller/Libraries/CMSIS/Include\core_cm0.h **** 
 473:C:/Users/Public/OptiSort/OptiSort/Microcontroller/Libraries/CMSIS/Include\core_cm0.h **** /* SysTick Current Register Definitions */
 474:C:/Users/Public/OptiSort/OptiSort/Microcontroller/Libraries/CMSIS/Include\core_cm0.h **** #define SysTick_VAL_CURRENT_Pos             0U                                            /*!< SysT
 475:C:/Users/Public/OptiSort/OptiSort/Microcontroller/Libraries/CMSIS/Include\core_cm0.h **** #define SysTick_VAL_CURRENT_Msk            (0xFFFFFFUL /*<< SysTick_VAL_CURRENT_Pos*/)    /*!< SysT
 476:C:/Users/Public/OptiSort/OptiSort/Microcontroller/Libraries/CMSIS/Include\core_cm0.h **** 
 477:C:/Users/Public/OptiSort/OptiSort/Microcontroller/Libraries/CMSIS/Include\core_cm0.h **** /* SysTick Calibration Register Definitions */
 478:C:/Users/Public/OptiSort/OptiSort/Microcontroller/Libraries/CMSIS/Include\core_cm0.h **** #define SysTick_CALIB_NOREF_Pos            31U                                            /*!< SysT
 479:C:/Users/Public/OptiSort/OptiSort/Microcontroller/Libraries/CMSIS/Include\core_cm0.h **** #define SysTick_CALIB_NOREF_Msk            (1UL << SysTick_CALIB_NOREF_Pos)               /*!< SysT
 480:C:/Users/Public/OptiSort/OptiSort/Microcontroller/Libraries/CMSIS/Include\core_cm0.h **** 
 481:C:/Users/Public/OptiSort/OptiSort/Microcontroller/Libraries/CMSIS/Include\core_cm0.h **** #define SysTick_CALIB_SKEW_Pos             30U                                            /*!< SysT
 482:C:/Users/Public/OptiSort/OptiSort/Microcontroller/Libraries/CMSIS/Include\core_cm0.h **** #define SysTick_CALIB_SKEW_Msk             (1UL << SysTick_CALIB_SKEW_Pos)                /*!< SysT
 483:C:/Users/Public/OptiSort/OptiSort/Microcontroller/Libraries/CMSIS/Include\core_cm0.h **** 
 484:C:/Users/Public/OptiSort/OptiSort/Microcontroller/Libraries/CMSIS/Include\core_cm0.h **** #define SysTick_CALIB_TENMS_Pos             0U                                            /*!< SysT
 485:C:/Users/Public/OptiSort/OptiSort/Microcontroller/Libraries/CMSIS/Include\core_cm0.h **** #define SysTick_CALIB_TENMS_Msk            (0xFFFFFFUL /*<< SysTick_CALIB_TENMS_Pos*/)    /*!< SysT
 486:C:/Users/Public/OptiSort/OptiSort/Microcontroller/Libraries/CMSIS/Include\core_cm0.h **** 
 487:C:/Users/Public/OptiSort/OptiSort/Microcontroller/Libraries/CMSIS/Include\core_cm0.h **** /*@} end of group CMSIS_SysTick */
 488:C:/Users/Public/OptiSort/OptiSort/Microcontroller/Libraries/CMSIS/Include\core_cm0.h **** 
 489:C:/Users/Public/OptiSort/OptiSort/Microcontroller/Libraries/CMSIS/Include\core_cm0.h **** 
 490:C:/Users/Public/OptiSort/OptiSort/Microcontroller/Libraries/CMSIS/Include\core_cm0.h **** /**
 491:C:/Users/Public/OptiSort/OptiSort/Microcontroller/Libraries/CMSIS/Include\core_cm0.h ****   \ingroup  CMSIS_core_register
 492:C:/Users/Public/OptiSort/OptiSort/Microcontroller/Libraries/CMSIS/Include\core_cm0.h ****   \defgroup CMSIS_CoreDebug       Core Debug Registers (CoreDebug)
 493:C:/Users/Public/OptiSort/OptiSort/Microcontroller/Libraries/CMSIS/Include\core_cm0.h ****   \brief    Cortex-M0 Core Debug Registers (DCB registers, SHCSR, and DFSR) are only accessible ove
 494:C:/Users/Public/OptiSort/OptiSort/Microcontroller/Libraries/CMSIS/Include\core_cm0.h ****             Therefore they are not covered by the Cortex-M0 header file.
 495:C:/Users/Public/OptiSort/OptiSort/Microcontroller/Libraries/CMSIS/Include\core_cm0.h ****   @{
 496:C:/Users/Public/OptiSort/OptiSort/Microcontroller/Libraries/CMSIS/Include\core_cm0.h ****  */
 497:C:/Users/Public/OptiSort/OptiSort/Microcontroller/Libraries/CMSIS/Include\core_cm0.h **** /*@} end of group CMSIS_CoreDebug */
 498:C:/Users/Public/OptiSort/OptiSort/Microcontroller/Libraries/CMSIS/Include\core_cm0.h **** 
 499:C:/Users/Public/OptiSort/OptiSort/Microcontroller/Libraries/CMSIS/Include\core_cm0.h **** 
 500:C:/Users/Public/OptiSort/OptiSort/Microcontroller/Libraries/CMSIS/Include\core_cm0.h **** /**
 501:C:/Users/Public/OptiSort/OptiSort/Microcontroller/Libraries/CMSIS/Include\core_cm0.h ****   \ingroup    CMSIS_core_register
 502:C:/Users/Public/OptiSort/OptiSort/Microcontroller/Libraries/CMSIS/Include\core_cm0.h ****   \defgroup   CMSIS_core_bitfield     Core register bit field macros
 503:C:/Users/Public/OptiSort/OptiSort/Microcontroller/Libraries/CMSIS/Include\core_cm0.h ****   \brief      Macros for use with bit field definitions (xxx_Pos, xxx_Msk).
 504:C:/Users/Public/OptiSort/OptiSort/Microcontroller/Libraries/CMSIS/Include\core_cm0.h ****   @{
 505:C:/Users/Public/OptiSort/OptiSort/Microcontroller/Libraries/CMSIS/Include\core_cm0.h ****  */
 506:C:/Users/Public/OptiSort/OptiSort/Microcontroller/Libraries/CMSIS/Include\core_cm0.h **** 
 507:C:/Users/Public/OptiSort/OptiSort/Microcontroller/Libraries/CMSIS/Include\core_cm0.h **** /**
 508:C:/Users/Public/OptiSort/OptiSort/Microcontroller/Libraries/CMSIS/Include\core_cm0.h ****   \brief   Mask and shift a bit field value for use in a register bit range.
 509:C:/Users/Public/OptiSort/OptiSort/Microcontroller/Libraries/CMSIS/Include\core_cm0.h ****   \param[in] field  Name of the register bit field.
 510:C:/Users/Public/OptiSort/OptiSort/Microcontroller/Libraries/CMSIS/Include\core_cm0.h ****   \param[in] value  Value of the bit field. This parameter is interpreted as an uint32_t type.
 511:C:/Users/Public/OptiSort/OptiSort/Microcontroller/Libraries/CMSIS/Include\core_cm0.h ****   \return           Masked and shifted value.
 512:C:/Users/Public/OptiSort/OptiSort/Microcontroller/Libraries/CMSIS/Include\core_cm0.h **** */
 513:C:/Users/Public/OptiSort/OptiSort/Microcontroller/Libraries/CMSIS/Include\core_cm0.h **** #define _VAL2FLD(field, value)    (((uint32_t)(value) << field ## _Pos) & field ## _Msk)
 514:C:/Users/Public/OptiSort/OptiSort/Microcontroller/Libraries/CMSIS/Include\core_cm0.h **** 
 515:C:/Users/Public/OptiSort/OptiSort/Microcontroller/Libraries/CMSIS/Include\core_cm0.h **** /**
 516:C:/Users/Public/OptiSort/OptiSort/Microcontroller/Libraries/CMSIS/Include\core_cm0.h ****   \brief     Mask and shift a register value to extract a bit filed value.
 517:C:/Users/Public/OptiSort/OptiSort/Microcontroller/Libraries/CMSIS/Include\core_cm0.h ****   \param[in] field  Name of the register bit field.
 518:C:/Users/Public/OptiSort/OptiSort/Microcontroller/Libraries/CMSIS/Include\core_cm0.h ****   \param[in] value  Value of register. This parameter is interpreted as an uint32_t type.
 519:C:/Users/Public/OptiSort/OptiSort/Microcontroller/Libraries/CMSIS/Include\core_cm0.h ****   \return           Masked and shifted bit field value.
 520:C:/Users/Public/OptiSort/OptiSort/Microcontroller/Libraries/CMSIS/Include\core_cm0.h **** */
 521:C:/Users/Public/OptiSort/OptiSort/Microcontroller/Libraries/CMSIS/Include\core_cm0.h **** #define _FLD2VAL(field, value)    (((uint32_t)(value) & field ## _Msk) >> field ## _Pos)
 522:C:/Users/Public/OptiSort/OptiSort/Microcontroller/Libraries/CMSIS/Include\core_cm0.h **** 
 523:C:/Users/Public/OptiSort/OptiSort/Microcontroller/Libraries/CMSIS/Include\core_cm0.h **** /*@} end of group CMSIS_core_bitfield */
 524:C:/Users/Public/OptiSort/OptiSort/Microcontroller/Libraries/CMSIS/Include\core_cm0.h **** 
 525:C:/Users/Public/OptiSort/OptiSort/Microcontroller/Libraries/CMSIS/Include\core_cm0.h **** 
 526:C:/Users/Public/OptiSort/OptiSort/Microcontroller/Libraries/CMSIS/Include\core_cm0.h **** /**
 527:C:/Users/Public/OptiSort/OptiSort/Microcontroller/Libraries/CMSIS/Include\core_cm0.h ****   \ingroup    CMSIS_core_register
 528:C:/Users/Public/OptiSort/OptiSort/Microcontroller/Libraries/CMSIS/Include\core_cm0.h ****   \defgroup   CMSIS_core_base     Core Definitions
 529:C:/Users/Public/OptiSort/OptiSort/Microcontroller/Libraries/CMSIS/Include\core_cm0.h ****   \brief      Definitions for base addresses, unions, and structures.
 530:C:/Users/Public/OptiSort/OptiSort/Microcontroller/Libraries/CMSIS/Include\core_cm0.h ****   @{
 531:C:/Users/Public/OptiSort/OptiSort/Microcontroller/Libraries/CMSIS/Include\core_cm0.h ****  */
 532:C:/Users/Public/OptiSort/OptiSort/Microcontroller/Libraries/CMSIS/Include\core_cm0.h **** 
 533:C:/Users/Public/OptiSort/OptiSort/Microcontroller/Libraries/CMSIS/Include\core_cm0.h **** /* Memory mapping of Core Hardware */
 534:C:/Users/Public/OptiSort/OptiSort/Microcontroller/Libraries/CMSIS/Include\core_cm0.h **** #define SCS_BASE            (0xE000E000UL)                            /*!< System Control Space Bas
 535:C:/Users/Public/OptiSort/OptiSort/Microcontroller/Libraries/CMSIS/Include\core_cm0.h **** #define SysTick_BASE        (SCS_BASE +  0x0010UL)                    /*!< SysTick Base Address */
 536:C:/Users/Public/OptiSort/OptiSort/Microcontroller/Libraries/CMSIS/Include\core_cm0.h **** #define NVIC_BASE           (SCS_BASE +  0x0100UL)                    /*!< NVIC Base Address */
 537:C:/Users/Public/OptiSort/OptiSort/Microcontroller/Libraries/CMSIS/Include\core_cm0.h **** #define SCB_BASE            (SCS_BASE +  0x0D00UL)                    /*!< System Control Block Bas
 538:C:/Users/Public/OptiSort/OptiSort/Microcontroller/Libraries/CMSIS/Include\core_cm0.h **** 
 539:C:/Users/Public/OptiSort/OptiSort/Microcontroller/Libraries/CMSIS/Include\core_cm0.h **** #define SCB                 ((SCB_Type       *)     SCB_BASE      )   /*!< SCB configuration struct
 540:C:/Users/Public/OptiSort/OptiSort/Microcontroller/Libraries/CMSIS/Include\core_cm0.h **** #define SysTick             ((SysTick_Type   *)     SysTick_BASE  )   /*!< SysTick configuration st
 541:C:/Users/Public/OptiSort/OptiSort/Microcontroller/Libraries/CMSIS/Include\core_cm0.h **** #define NVIC                ((NVIC_Type      *)     NVIC_BASE     )   /*!< NVIC configuration struc
 542:C:/Users/Public/OptiSort/OptiSort/Microcontroller/Libraries/CMSIS/Include\core_cm0.h **** 
 543:C:/Users/Public/OptiSort/OptiSort/Microcontroller/Libraries/CMSIS/Include\core_cm0.h **** 
 544:C:/Users/Public/OptiSort/OptiSort/Microcontroller/Libraries/CMSIS/Include\core_cm0.h **** /*@} */
 545:C:/Users/Public/OptiSort/OptiSort/Microcontroller/Libraries/CMSIS/Include\core_cm0.h **** 
 546:C:/Users/Public/OptiSort/OptiSort/Microcontroller/Libraries/CMSIS/Include\core_cm0.h **** 
 547:C:/Users/Public/OptiSort/OptiSort/Microcontroller/Libraries/CMSIS/Include\core_cm0.h **** 
 548:C:/Users/Public/OptiSort/OptiSort/Microcontroller/Libraries/CMSIS/Include\core_cm0.h **** /*******************************************************************************
 549:C:/Users/Public/OptiSort/OptiSort/Microcontroller/Libraries/CMSIS/Include\core_cm0.h ****  *                Hardware Abstraction Layer
 550:C:/Users/Public/OptiSort/OptiSort/Microcontroller/Libraries/CMSIS/Include\core_cm0.h ****   Core Function Interface contains:
 551:C:/Users/Public/OptiSort/OptiSort/Microcontroller/Libraries/CMSIS/Include\core_cm0.h ****   - Core NVIC Functions
 552:C:/Users/Public/OptiSort/OptiSort/Microcontroller/Libraries/CMSIS/Include\core_cm0.h ****   - Core SysTick Functions
 553:C:/Users/Public/OptiSort/OptiSort/Microcontroller/Libraries/CMSIS/Include\core_cm0.h ****   - Core Register Access Functions
 554:C:/Users/Public/OptiSort/OptiSort/Microcontroller/Libraries/CMSIS/Include\core_cm0.h ****  ******************************************************************************/
 555:C:/Users/Public/OptiSort/OptiSort/Microcontroller/Libraries/CMSIS/Include\core_cm0.h **** /**
 556:C:/Users/Public/OptiSort/OptiSort/Microcontroller/Libraries/CMSIS/Include\core_cm0.h ****   \defgroup CMSIS_Core_FunctionInterface Functions and Instructions Reference
 557:C:/Users/Public/OptiSort/OptiSort/Microcontroller/Libraries/CMSIS/Include\core_cm0.h **** */
 558:C:/Users/Public/OptiSort/OptiSort/Microcontroller/Libraries/CMSIS/Include\core_cm0.h **** 
 559:C:/Users/Public/OptiSort/OptiSort/Microcontroller/Libraries/CMSIS/Include\core_cm0.h **** 
 560:C:/Users/Public/OptiSort/OptiSort/Microcontroller/Libraries/CMSIS/Include\core_cm0.h **** 
 561:C:/Users/Public/OptiSort/OptiSort/Microcontroller/Libraries/CMSIS/Include\core_cm0.h **** /* ##########################   NVIC functions  #################################### */
 562:C:/Users/Public/OptiSort/OptiSort/Microcontroller/Libraries/CMSIS/Include\core_cm0.h **** /**
 563:C:/Users/Public/OptiSort/OptiSort/Microcontroller/Libraries/CMSIS/Include\core_cm0.h ****   \ingroup  CMSIS_Core_FunctionInterface
 564:C:/Users/Public/OptiSort/OptiSort/Microcontroller/Libraries/CMSIS/Include\core_cm0.h ****   \defgroup CMSIS_Core_NVICFunctions NVIC Functions
 565:C:/Users/Public/OptiSort/OptiSort/Microcontroller/Libraries/CMSIS/Include\core_cm0.h ****   \brief    Functions that manage interrupts and exceptions via the NVIC.
 566:C:/Users/Public/OptiSort/OptiSort/Microcontroller/Libraries/CMSIS/Include\core_cm0.h ****   @{
 567:C:/Users/Public/OptiSort/OptiSort/Microcontroller/Libraries/CMSIS/Include\core_cm0.h ****  */
 568:C:/Users/Public/OptiSort/OptiSort/Microcontroller/Libraries/CMSIS/Include\core_cm0.h **** 
 569:C:/Users/Public/OptiSort/OptiSort/Microcontroller/Libraries/CMSIS/Include\core_cm0.h **** #ifdef CMSIS_NVIC_VIRTUAL
 570:C:/Users/Public/OptiSort/OptiSort/Microcontroller/Libraries/CMSIS/Include\core_cm0.h ****   #ifndef CMSIS_NVIC_VIRTUAL_HEADER_FILE
 571:C:/Users/Public/OptiSort/OptiSort/Microcontroller/Libraries/CMSIS/Include\core_cm0.h ****     #define CMSIS_NVIC_VIRTUAL_HEADER_FILE "cmsis_nvic_virtual.h"
 572:C:/Users/Public/OptiSort/OptiSort/Microcontroller/Libraries/CMSIS/Include\core_cm0.h ****   #endif
 573:C:/Users/Public/OptiSort/OptiSort/Microcontroller/Libraries/CMSIS/Include\core_cm0.h ****   #include CMSIS_NVIC_VIRTUAL_HEADER_FILE
 574:C:/Users/Public/OptiSort/OptiSort/Microcontroller/Libraries/CMSIS/Include\core_cm0.h **** #else
 575:C:/Users/Public/OptiSort/OptiSort/Microcontroller/Libraries/CMSIS/Include\core_cm0.h **** /*#define NVIC_SetPriorityGrouping    __NVIC_SetPriorityGrouping   not available for Cortex-M0 */
 576:C:/Users/Public/OptiSort/OptiSort/Microcontroller/Libraries/CMSIS/Include\core_cm0.h **** /*#define NVIC_GetPriorityGrouping    __NVIC_GetPriorityGrouping   not available for Cortex-M0 */
 577:C:/Users/Public/OptiSort/OptiSort/Microcontroller/Libraries/CMSIS/Include\core_cm0.h ****   #define NVIC_EnableIRQ              __NVIC_EnableIRQ
 578:C:/Users/Public/OptiSort/OptiSort/Microcontroller/Libraries/CMSIS/Include\core_cm0.h ****   #define NVIC_GetEnableIRQ           __NVIC_GetEnableIRQ
 579:C:/Users/Public/OptiSort/OptiSort/Microcontroller/Libraries/CMSIS/Include\core_cm0.h ****   #define NVIC_DisableIRQ             __NVIC_DisableIRQ
 580:C:/Users/Public/OptiSort/OptiSort/Microcontroller/Libraries/CMSIS/Include\core_cm0.h ****   #define NVIC_GetPendingIRQ          __NVIC_GetPendingIRQ
 581:C:/Users/Public/OptiSort/OptiSort/Microcontroller/Libraries/CMSIS/Include\core_cm0.h ****   #define NVIC_SetPendingIRQ          __NVIC_SetPendingIRQ
 582:C:/Users/Public/OptiSort/OptiSort/Microcontroller/Libraries/CMSIS/Include\core_cm0.h ****   #define NVIC_ClearPendingIRQ        __NVIC_ClearPendingIRQ
 583:C:/Users/Public/OptiSort/OptiSort/Microcontroller/Libraries/CMSIS/Include\core_cm0.h **** /*#define NVIC_GetActive              __NVIC_GetActive             not available for Cortex-M0 */
 584:C:/Users/Public/OptiSort/OptiSort/Microcontroller/Libraries/CMSIS/Include\core_cm0.h ****   #define NVIC_SetPriority            __NVIC_SetPriority
 585:C:/Users/Public/OptiSort/OptiSort/Microcontroller/Libraries/CMSIS/Include\core_cm0.h ****   #define NVIC_GetPriority            __NVIC_GetPriority
 586:C:/Users/Public/OptiSort/OptiSort/Microcontroller/Libraries/CMSIS/Include\core_cm0.h ****   #define NVIC_SystemReset            __NVIC_SystemReset
 587:C:/Users/Public/OptiSort/OptiSort/Microcontroller/Libraries/CMSIS/Include\core_cm0.h **** #endif /* CMSIS_NVIC_VIRTUAL */
 588:C:/Users/Public/OptiSort/OptiSort/Microcontroller/Libraries/CMSIS/Include\core_cm0.h **** 
 589:C:/Users/Public/OptiSort/OptiSort/Microcontroller/Libraries/CMSIS/Include\core_cm0.h **** #ifdef CMSIS_VECTAB_VIRTUAL
 590:C:/Users/Public/OptiSort/OptiSort/Microcontroller/Libraries/CMSIS/Include\core_cm0.h ****   #ifndef CMSIS_VECTAB_VIRTUAL_HEADER_FILE
 591:C:/Users/Public/OptiSort/OptiSort/Microcontroller/Libraries/CMSIS/Include\core_cm0.h ****     #define CMSIS_VECTAB_VIRTUAL_HEADER_FILE "cmsis_vectab_virtual.h"
 592:C:/Users/Public/OptiSort/OptiSort/Microcontroller/Libraries/CMSIS/Include\core_cm0.h ****   #endif
 593:C:/Users/Public/OptiSort/OptiSort/Microcontroller/Libraries/CMSIS/Include\core_cm0.h ****   #include CMSIS_VECTAB_VIRTUAL_HEADER_FILE
 594:C:/Users/Public/OptiSort/OptiSort/Microcontroller/Libraries/CMSIS/Include\core_cm0.h **** #else
 595:C:/Users/Public/OptiSort/OptiSort/Microcontroller/Libraries/CMSIS/Include\core_cm0.h ****   #define NVIC_SetVector              __NVIC_SetVector
 596:C:/Users/Public/OptiSort/OptiSort/Microcontroller/Libraries/CMSIS/Include\core_cm0.h ****   #define NVIC_GetVector              __NVIC_GetVector
 597:C:/Users/Public/OptiSort/OptiSort/Microcontroller/Libraries/CMSIS/Include\core_cm0.h **** #endif  /* (CMSIS_VECTAB_VIRTUAL) */
 598:C:/Users/Public/OptiSort/OptiSort/Microcontroller/Libraries/CMSIS/Include\core_cm0.h **** 
 599:C:/Users/Public/OptiSort/OptiSort/Microcontroller/Libraries/CMSIS/Include\core_cm0.h **** #define NVIC_USER_IRQ_OFFSET          16
 600:C:/Users/Public/OptiSort/OptiSort/Microcontroller/Libraries/CMSIS/Include\core_cm0.h **** 
 601:C:/Users/Public/OptiSort/OptiSort/Microcontroller/Libraries/CMSIS/Include\core_cm0.h **** 
 602:C:/Users/Public/OptiSort/OptiSort/Microcontroller/Libraries/CMSIS/Include\core_cm0.h **** /* Interrupt Priorities are WORD accessible only under ARMv6M                   */
 603:C:/Users/Public/OptiSort/OptiSort/Microcontroller/Libraries/CMSIS/Include\core_cm0.h **** /* The following MACROS handle generation of the register offset and byte masks */
 604:C:/Users/Public/OptiSort/OptiSort/Microcontroller/Libraries/CMSIS/Include\core_cm0.h **** #define _BIT_SHIFT(IRQn)         (  ((((uint32_t)(int32_t)(IRQn))         )      &  0x03UL) * 8UL)
 605:C:/Users/Public/OptiSort/OptiSort/Microcontroller/Libraries/CMSIS/Include\core_cm0.h **** #define _SHP_IDX(IRQn)           ( (((((uint32_t)(int32_t)(IRQn)) & 0x0FUL)-8UL) >>    2UL)      )
 606:C:/Users/Public/OptiSort/OptiSort/Microcontroller/Libraries/CMSIS/Include\core_cm0.h **** #define _IP_IDX(IRQn)            (   (((uint32_t)(int32_t)(IRQn))                >>    2UL)      )
 607:C:/Users/Public/OptiSort/OptiSort/Microcontroller/Libraries/CMSIS/Include\core_cm0.h **** 
 608:C:/Users/Public/OptiSort/OptiSort/Microcontroller/Libraries/CMSIS/Include\core_cm0.h **** 
 609:C:/Users/Public/OptiSort/OptiSort/Microcontroller/Libraries/CMSIS/Include\core_cm0.h **** /**
 610:C:/Users/Public/OptiSort/OptiSort/Microcontroller/Libraries/CMSIS/Include\core_cm0.h ****   \brief   Enable Interrupt
 611:C:/Users/Public/OptiSort/OptiSort/Microcontroller/Libraries/CMSIS/Include\core_cm0.h ****   \details Enables a device specific interrupt in the NVIC interrupt controller.
 612:C:/Users/Public/OptiSort/OptiSort/Microcontroller/Libraries/CMSIS/Include\core_cm0.h ****   \param [in]      IRQn  Device specific interrupt number.
 613:C:/Users/Public/OptiSort/OptiSort/Microcontroller/Libraries/CMSIS/Include\core_cm0.h ****   \note    IRQn must not be negative.
 614:C:/Users/Public/OptiSort/OptiSort/Microcontroller/Libraries/CMSIS/Include\core_cm0.h ****  */
 615:C:/Users/Public/OptiSort/OptiSort/Microcontroller/Libraries/CMSIS/Include\core_cm0.h **** __STATIC_INLINE void __NVIC_EnableIRQ(IRQn_Type IRQn)
 616:C:/Users/Public/OptiSort/OptiSort/Microcontroller/Libraries/CMSIS/Include\core_cm0.h **** {
  25              	 .loc 1 616 0
  26              	 .cfi_startproc
  27 0000 80B5     	 push {r7,lr}
  28              	.LCFI0:
  29              	 .cfi_def_cfa_offset 8
  30              	 .cfi_offset 7,-8
  31              	 .cfi_offset 14,-4
  32 0002 82B0     	 sub sp,sp,#8
  33              	.LCFI1:
  34              	 .cfi_def_cfa_offset 16
  35 0004 00AF     	 add r7,sp,#0
  36              	.LCFI2:
  37              	 .cfi_def_cfa_register 7
  38 0006 021C     	 mov r2,r0
  39 0008 FB1D     	 add r3,r7,#7
  40 000a 1A70     	 strb r2,[r3]
 617:C:/Users/Public/OptiSort/OptiSort/Microcontroller/Libraries/CMSIS/Include\core_cm0.h ****   if ((int32_t)(IRQn) >= 0)
  41              	 .loc 1 617 0
  42 000c FB1D     	 add r3,r7,#7
  43 000e 1B78     	 ldrb r3,[r3]
  44 0010 7F2B     	 cmp r3,#127
  45 0012 09D8     	 bhi .L1
 618:C:/Users/Public/OptiSort/OptiSort/Microcontroller/Libraries/CMSIS/Include\core_cm0.h ****   {
 619:C:/Users/Public/OptiSort/OptiSort/Microcontroller/Libraries/CMSIS/Include\core_cm0.h ****     NVIC->ISER[0U] = (uint32_t)(1UL << (((uint32_t)(int32_t)IRQn) & 0x1FUL));
  46              	 .loc 1 619 0
  47 0014 064B     	 ldr r3,.L3
  48 0016 FA1D     	 add r2,r7,#7
  49 0018 1278     	 ldrb r2,[r2]
  50 001a 111C     	 mov r1,r2
  51 001c 1F22     	 mov r2,#31
  52 001e 0A40     	 and r2,r1
  53 0020 0121     	 mov r1,#1
  54 0022 9140     	 lsl r1,r1,r2
  55 0024 0A1C     	 mov r2,r1
  56 0026 1A60     	 str r2,[r3]
  57              	.L1:
 620:C:/Users/Public/OptiSort/OptiSort/Microcontroller/Libraries/CMSIS/Include\core_cm0.h ****   }
 621:C:/Users/Public/OptiSort/OptiSort/Microcontroller/Libraries/CMSIS/Include\core_cm0.h **** }
  58              	 .loc 1 621 0
  59 0028 BD46     	 mov sp,r7
  60 002a 02B0     	 add sp,sp,#8
  61              	 
  62 002c 80BD     	 pop {r7,pc}
  63              	.L4:
  64 002e C046     	 .align 2
  65              	.L3:
  66 0030 00E100E0 	 .word -536813312
  67              	 .cfi_endproc
  68              	.LFE23:
  70              	 .section .text.__NVIC_DisableIRQ,"ax",%progbits
  71              	 .align 2
  72              	 .code 16
  73              	 .thumb_func
  75              	__NVIC_DisableIRQ:
  76              	.LFB25:
 622:C:/Users/Public/OptiSort/OptiSort/Microcontroller/Libraries/CMSIS/Include\core_cm0.h **** 
 623:C:/Users/Public/OptiSort/OptiSort/Microcontroller/Libraries/CMSIS/Include\core_cm0.h **** 
 624:C:/Users/Public/OptiSort/OptiSort/Microcontroller/Libraries/CMSIS/Include\core_cm0.h **** /**
 625:C:/Users/Public/OptiSort/OptiSort/Microcontroller/Libraries/CMSIS/Include\core_cm0.h ****   \brief   Get Interrupt Enable status
 626:C:/Users/Public/OptiSort/OptiSort/Microcontroller/Libraries/CMSIS/Include\core_cm0.h ****   \details Returns a device specific interrupt enable status from the NVIC interrupt controller.
 627:C:/Users/Public/OptiSort/OptiSort/Microcontroller/Libraries/CMSIS/Include\core_cm0.h ****   \param [in]      IRQn  Device specific interrupt number.
 628:C:/Users/Public/OptiSort/OptiSort/Microcontroller/Libraries/CMSIS/Include\core_cm0.h ****   \return             0  Interrupt is not enabled.
 629:C:/Users/Public/OptiSort/OptiSort/Microcontroller/Libraries/CMSIS/Include\core_cm0.h ****   \return             1  Interrupt is enabled.
 630:C:/Users/Public/OptiSort/OptiSort/Microcontroller/Libraries/CMSIS/Include\core_cm0.h ****   \note    IRQn must not be negative.
 631:C:/Users/Public/OptiSort/OptiSort/Microcontroller/Libraries/CMSIS/Include\core_cm0.h ****  */
 632:C:/Users/Public/OptiSort/OptiSort/Microcontroller/Libraries/CMSIS/Include\core_cm0.h **** __STATIC_INLINE uint32_t __NVIC_GetEnableIRQ(IRQn_Type IRQn)
 633:C:/Users/Public/OptiSort/OptiSort/Microcontroller/Libraries/CMSIS/Include\core_cm0.h **** {
 634:C:/Users/Public/OptiSort/OptiSort/Microcontroller/Libraries/CMSIS/Include\core_cm0.h ****   if ((int32_t)(IRQn) >= 0)
 635:C:/Users/Public/OptiSort/OptiSort/Microcontroller/Libraries/CMSIS/Include\core_cm0.h ****   {
 636:C:/Users/Public/OptiSort/OptiSort/Microcontroller/Libraries/CMSIS/Include\core_cm0.h ****     return((uint32_t)(((NVIC->ISER[0U] & (1UL << (((uint32_t)(int32_t)IRQn) & 0x1FUL))) != 0UL) ? 1
 637:C:/Users/Public/OptiSort/OptiSort/Microcontroller/Libraries/CMSIS/Include\core_cm0.h ****   }
 638:C:/Users/Public/OptiSort/OptiSort/Microcontroller/Libraries/CMSIS/Include\core_cm0.h ****   else
 639:C:/Users/Public/OptiSort/OptiSort/Microcontroller/Libraries/CMSIS/Include\core_cm0.h ****   {
 640:C:/Users/Public/OptiSort/OptiSort/Microcontroller/Libraries/CMSIS/Include\core_cm0.h ****     return(0U);
 641:C:/Users/Public/OptiSort/OptiSort/Microcontroller/Libraries/CMSIS/Include\core_cm0.h ****   }
 642:C:/Users/Public/OptiSort/OptiSort/Microcontroller/Libraries/CMSIS/Include\core_cm0.h **** }
 643:C:/Users/Public/OptiSort/OptiSort/Microcontroller/Libraries/CMSIS/Include\core_cm0.h **** 
 644:C:/Users/Public/OptiSort/OptiSort/Microcontroller/Libraries/CMSIS/Include\core_cm0.h **** 
 645:C:/Users/Public/OptiSort/OptiSort/Microcontroller/Libraries/CMSIS/Include\core_cm0.h **** /**
 646:C:/Users/Public/OptiSort/OptiSort/Microcontroller/Libraries/CMSIS/Include\core_cm0.h ****   \brief   Disable Interrupt
 647:C:/Users/Public/OptiSort/OptiSort/Microcontroller/Libraries/CMSIS/Include\core_cm0.h ****   \details Disables a device specific interrupt in the NVIC interrupt controller.
 648:C:/Users/Public/OptiSort/OptiSort/Microcontroller/Libraries/CMSIS/Include\core_cm0.h ****   \param [in]      IRQn  Device specific interrupt number.
 649:C:/Users/Public/OptiSort/OptiSort/Microcontroller/Libraries/CMSIS/Include\core_cm0.h ****   \note    IRQn must not be negative.
 650:C:/Users/Public/OptiSort/OptiSort/Microcontroller/Libraries/CMSIS/Include\core_cm0.h ****  */
 651:C:/Users/Public/OptiSort/OptiSort/Microcontroller/Libraries/CMSIS/Include\core_cm0.h **** __STATIC_INLINE void __NVIC_DisableIRQ(IRQn_Type IRQn)
 652:C:/Users/Public/OptiSort/OptiSort/Microcontroller/Libraries/CMSIS/Include\core_cm0.h **** {
  77              	 .loc 1 652 0
  78              	 .cfi_startproc
  79 0000 80B5     	 push {r7,lr}
  80              	.LCFI3:
  81              	 .cfi_def_cfa_offset 8
  82              	 .cfi_offset 7,-8
  83              	 .cfi_offset 14,-4
  84 0002 82B0     	 sub sp,sp,#8
  85              	.LCFI4:
  86              	 .cfi_def_cfa_offset 16
  87 0004 00AF     	 add r7,sp,#0
  88              	.LCFI5:
  89              	 .cfi_def_cfa_register 7
  90 0006 021C     	 mov r2,r0
  91 0008 FB1D     	 add r3,r7,#7
  92 000a 1A70     	 strb r2,[r3]
 653:C:/Users/Public/OptiSort/OptiSort/Microcontroller/Libraries/CMSIS/Include\core_cm0.h ****   if ((int32_t)(IRQn) >= 0)
  93              	 .loc 1 653 0
  94 000c FB1D     	 add r3,r7,#7
  95 000e 1B78     	 ldrb r3,[r3]
  96 0010 7F2B     	 cmp r3,#127
  97 0012 0ED8     	 bhi .L5
 654:C:/Users/Public/OptiSort/OptiSort/Microcontroller/Libraries/CMSIS/Include\core_cm0.h ****   {
 655:C:/Users/Public/OptiSort/OptiSort/Microcontroller/Libraries/CMSIS/Include\core_cm0.h ****     NVIC->ICER[0U] = (uint32_t)(1UL << (((uint32_t)(int32_t)IRQn) & 0x1FUL));
  98              	 .loc 1 655 0
  99 0014 0849     	 ldr r1,.L7
 100 0016 FB1D     	 add r3,r7,#7
 101 0018 1B78     	 ldrb r3,[r3]
 102 001a 1A1C     	 mov r2,r3
 103 001c 1F23     	 mov r3,#31
 104 001e 1340     	 and r3,r2
 105 0020 0122     	 mov r2,#1
 106 0022 9A40     	 lsl r2,r2,r3
 107 0024 131C     	 mov r3,r2
 108 0026 8022     	 mov r2,#128
 109 0028 8B50     	 str r3,[r1,r2]
 110              	.LBB6:
 111              	.LBB7:
 112              	 .file 2 "C:/Users/Public/OptiSort/OptiSort/Microcontroller/Libraries/CMSIS/Include/cmsis_gcc.h"
   1:C:/Users/Public/OptiSort/OptiSort/Microcontroller/Libraries/CMSIS/Include\cmsis_gcc.h **** /**************************************************************************//**
   2:C:/Users/Public/OptiSort/OptiSort/Microcontroller/Libraries/CMSIS/Include\cmsis_gcc.h ****  * @file     cmsis_gcc.h
   3:C:/Users/Public/OptiSort/OptiSort/Microcontroller/Libraries/CMSIS/Include\cmsis_gcc.h ****  * @brief    CMSIS compiler GCC header file
   4:C:/Users/Public/OptiSort/OptiSort/Microcontroller/Libraries/CMSIS/Include\cmsis_gcc.h ****  * @version  V5.0.2
   5:C:/Users/Public/OptiSort/OptiSort/Microcontroller/Libraries/CMSIS/Include\cmsis_gcc.h ****  * @date     13. February 2017
   6:C:/Users/Public/OptiSort/OptiSort/Microcontroller/Libraries/CMSIS/Include\cmsis_gcc.h ****  ******************************************************************************/
   7:C:/Users/Public/OptiSort/OptiSort/Microcontroller/Libraries/CMSIS/Include\cmsis_gcc.h **** /*
   8:C:/Users/Public/OptiSort/OptiSort/Microcontroller/Libraries/CMSIS/Include\cmsis_gcc.h ****  * Copyright (c) 2009-2017 ARM Limited. All rights reserved.
   9:C:/Users/Public/OptiSort/OptiSort/Microcontroller/Libraries/CMSIS/Include\cmsis_gcc.h ****  *
  10:C:/Users/Public/OptiSort/OptiSort/Microcontroller/Libraries/CMSIS/Include\cmsis_gcc.h ****  * SPDX-License-Identifier: Apache-2.0
  11:C:/Users/Public/OptiSort/OptiSort/Microcontroller/Libraries/CMSIS/Include\cmsis_gcc.h ****  *
  12:C:/Users/Public/OptiSort/OptiSort/Microcontroller/Libraries/CMSIS/Include\cmsis_gcc.h ****  * Licensed under the Apache License, Version 2.0 (the License); you may
  13:C:/Users/Public/OptiSort/OptiSort/Microcontroller/Libraries/CMSIS/Include\cmsis_gcc.h ****  * not use this file except in compliance with the License.
  14:C:/Users/Public/OptiSort/OptiSort/Microcontroller/Libraries/CMSIS/Include\cmsis_gcc.h ****  * You may obtain a copy of the License at
  15:C:/Users/Public/OptiSort/OptiSort/Microcontroller/Libraries/CMSIS/Include\cmsis_gcc.h ****  *
  16:C:/Users/Public/OptiSort/OptiSort/Microcontroller/Libraries/CMSIS/Include\cmsis_gcc.h ****  * www.apache.org/licenses/LICENSE-2.0
  17:C:/Users/Public/OptiSort/OptiSort/Microcontroller/Libraries/CMSIS/Include\cmsis_gcc.h ****  *
  18:C:/Users/Public/OptiSort/OptiSort/Microcontroller/Libraries/CMSIS/Include\cmsis_gcc.h ****  * Unless required by applicable law or agreed to in writing, software
  19:C:/Users/Public/OptiSort/OptiSort/Microcontroller/Libraries/CMSIS/Include\cmsis_gcc.h ****  * distributed under the License is distributed on an AS IS BASIS, WITHOUT
  20:C:/Users/Public/OptiSort/OptiSort/Microcontroller/Libraries/CMSIS/Include\cmsis_gcc.h ****  * WARRANTIES OR CONDITIONS OF ANY KIND, either express or implied.
  21:C:/Users/Public/OptiSort/OptiSort/Microcontroller/Libraries/CMSIS/Include\cmsis_gcc.h ****  * See the License for the specific language governing permissions and
  22:C:/Users/Public/OptiSort/OptiSort/Microcontroller/Libraries/CMSIS/Include\cmsis_gcc.h ****  * limitations under the License.
  23:C:/Users/Public/OptiSort/OptiSort/Microcontroller/Libraries/CMSIS/Include\cmsis_gcc.h ****  */
  24:C:/Users/Public/OptiSort/OptiSort/Microcontroller/Libraries/CMSIS/Include\cmsis_gcc.h **** 
  25:C:/Users/Public/OptiSort/OptiSort/Microcontroller/Libraries/CMSIS/Include\cmsis_gcc.h **** #ifndef __CMSIS_GCC_H
  26:C:/Users/Public/OptiSort/OptiSort/Microcontroller/Libraries/CMSIS/Include\cmsis_gcc.h **** #define __CMSIS_GCC_H
  27:C:/Users/Public/OptiSort/OptiSort/Microcontroller/Libraries/CMSIS/Include\cmsis_gcc.h **** 
  28:C:/Users/Public/OptiSort/OptiSort/Microcontroller/Libraries/CMSIS/Include\cmsis_gcc.h **** /* ignore some GCC warnings */
  29:C:/Users/Public/OptiSort/OptiSort/Microcontroller/Libraries/CMSIS/Include\cmsis_gcc.h **** #pragma GCC diagnostic push
  30:C:/Users/Public/OptiSort/OptiSort/Microcontroller/Libraries/CMSIS/Include\cmsis_gcc.h **** #pragma GCC diagnostic ignored "-Wsign-conversion"
  31:C:/Users/Public/OptiSort/OptiSort/Microcontroller/Libraries/CMSIS/Include\cmsis_gcc.h **** #pragma GCC diagnostic ignored "-Wconversion"
  32:C:/Users/Public/OptiSort/OptiSort/Microcontroller/Libraries/CMSIS/Include\cmsis_gcc.h **** #pragma GCC diagnostic ignored "-Wunused-parameter"
  33:C:/Users/Public/OptiSort/OptiSort/Microcontroller/Libraries/CMSIS/Include\cmsis_gcc.h **** 
  34:C:/Users/Public/OptiSort/OptiSort/Microcontroller/Libraries/CMSIS/Include\cmsis_gcc.h **** /* Fallback for __has_builtin */
  35:C:/Users/Public/OptiSort/OptiSort/Microcontroller/Libraries/CMSIS/Include\cmsis_gcc.h **** #ifndef __has_builtin
  36:C:/Users/Public/OptiSort/OptiSort/Microcontroller/Libraries/CMSIS/Include\cmsis_gcc.h ****   #define __has_builtin(x) (0)
  37:C:/Users/Public/OptiSort/OptiSort/Microcontroller/Libraries/CMSIS/Include\cmsis_gcc.h **** #endif
  38:C:/Users/Public/OptiSort/OptiSort/Microcontroller/Libraries/CMSIS/Include\cmsis_gcc.h **** 
  39:C:/Users/Public/OptiSort/OptiSort/Microcontroller/Libraries/CMSIS/Include\cmsis_gcc.h **** /* CMSIS compiler specific defines */
  40:C:/Users/Public/OptiSort/OptiSort/Microcontroller/Libraries/CMSIS/Include\cmsis_gcc.h **** #ifndef   __ASM
  41:C:/Users/Public/OptiSort/OptiSort/Microcontroller/Libraries/CMSIS/Include\cmsis_gcc.h ****   #define __ASM                                  __asm
  42:C:/Users/Public/OptiSort/OptiSort/Microcontroller/Libraries/CMSIS/Include\cmsis_gcc.h **** #endif
  43:C:/Users/Public/OptiSort/OptiSort/Microcontroller/Libraries/CMSIS/Include\cmsis_gcc.h **** #ifndef   __INLINE
  44:C:/Users/Public/OptiSort/OptiSort/Microcontroller/Libraries/CMSIS/Include\cmsis_gcc.h ****   #define __INLINE                               inline
  45:C:/Users/Public/OptiSort/OptiSort/Microcontroller/Libraries/CMSIS/Include\cmsis_gcc.h **** #endif
  46:C:/Users/Public/OptiSort/OptiSort/Microcontroller/Libraries/CMSIS/Include\cmsis_gcc.h **** #ifndef   __STATIC_INLINE
  47:C:/Users/Public/OptiSort/OptiSort/Microcontroller/Libraries/CMSIS/Include\cmsis_gcc.h ****   #define __STATIC_INLINE                        static inline
  48:C:/Users/Public/OptiSort/OptiSort/Microcontroller/Libraries/CMSIS/Include\cmsis_gcc.h **** #endif
  49:C:/Users/Public/OptiSort/OptiSort/Microcontroller/Libraries/CMSIS/Include\cmsis_gcc.h **** #ifndef   __STATIC_FORCEINLINE                 
  50:C:/Users/Public/OptiSort/OptiSort/Microcontroller/Libraries/CMSIS/Include\cmsis_gcc.h ****   #define __STATIC_FORCEINLINE                   __attribute__((always_inline)) static inline
  51:C:/Users/Public/OptiSort/OptiSort/Microcontroller/Libraries/CMSIS/Include\cmsis_gcc.h **** #endif                                           
  52:C:/Users/Public/OptiSort/OptiSort/Microcontroller/Libraries/CMSIS/Include\cmsis_gcc.h **** #ifndef   __NO_RETURN
  53:C:/Users/Public/OptiSort/OptiSort/Microcontroller/Libraries/CMSIS/Include\cmsis_gcc.h ****   #define __NO_RETURN                            __attribute__((__noreturn__))
  54:C:/Users/Public/OptiSort/OptiSort/Microcontroller/Libraries/CMSIS/Include\cmsis_gcc.h **** #endif
  55:C:/Users/Public/OptiSort/OptiSort/Microcontroller/Libraries/CMSIS/Include\cmsis_gcc.h **** #ifndef   __USED
  56:C:/Users/Public/OptiSort/OptiSort/Microcontroller/Libraries/CMSIS/Include\cmsis_gcc.h ****   #define __USED                                 __attribute__((used))
  57:C:/Users/Public/OptiSort/OptiSort/Microcontroller/Libraries/CMSIS/Include\cmsis_gcc.h **** #endif
  58:C:/Users/Public/OptiSort/OptiSort/Microcontroller/Libraries/CMSIS/Include\cmsis_gcc.h **** #ifndef   __WEAK
  59:C:/Users/Public/OptiSort/OptiSort/Microcontroller/Libraries/CMSIS/Include\cmsis_gcc.h ****   #define __WEAK                                 __attribute__((weak))
  60:C:/Users/Public/OptiSort/OptiSort/Microcontroller/Libraries/CMSIS/Include\cmsis_gcc.h **** #endif
  61:C:/Users/Public/OptiSort/OptiSort/Microcontroller/Libraries/CMSIS/Include\cmsis_gcc.h **** #ifndef   __PACKED
  62:C:/Users/Public/OptiSort/OptiSort/Microcontroller/Libraries/CMSIS/Include\cmsis_gcc.h ****   #define __PACKED                               __attribute__((packed, aligned(1)))
  63:C:/Users/Public/OptiSort/OptiSort/Microcontroller/Libraries/CMSIS/Include\cmsis_gcc.h **** #endif
  64:C:/Users/Public/OptiSort/OptiSort/Microcontroller/Libraries/CMSIS/Include\cmsis_gcc.h **** #ifndef   __PACKED_STRUCT
  65:C:/Users/Public/OptiSort/OptiSort/Microcontroller/Libraries/CMSIS/Include\cmsis_gcc.h ****   #define __PACKED_STRUCT                        struct __attribute__((packed, aligned(1)))
  66:C:/Users/Public/OptiSort/OptiSort/Microcontroller/Libraries/CMSIS/Include\cmsis_gcc.h **** #endif
  67:C:/Users/Public/OptiSort/OptiSort/Microcontroller/Libraries/CMSIS/Include\cmsis_gcc.h **** #ifndef   __PACKED_UNION
  68:C:/Users/Public/OptiSort/OptiSort/Microcontroller/Libraries/CMSIS/Include\cmsis_gcc.h ****   #define __PACKED_UNION                         union __attribute__((packed, aligned(1)))
  69:C:/Users/Public/OptiSort/OptiSort/Microcontroller/Libraries/CMSIS/Include\cmsis_gcc.h **** #endif
  70:C:/Users/Public/OptiSort/OptiSort/Microcontroller/Libraries/CMSIS/Include\cmsis_gcc.h **** #ifndef   __UNALIGNED_UINT32        /* deprecated */
  71:C:/Users/Public/OptiSort/OptiSort/Microcontroller/Libraries/CMSIS/Include\cmsis_gcc.h ****   #pragma GCC diagnostic push
  72:C:/Users/Public/OptiSort/OptiSort/Microcontroller/Libraries/CMSIS/Include\cmsis_gcc.h ****   #pragma GCC diagnostic ignored "-Wpacked"
  73:C:/Users/Public/OptiSort/OptiSort/Microcontroller/Libraries/CMSIS/Include\cmsis_gcc.h ****   #pragma GCC diagnostic ignored "-Wattributes"
  74:C:/Users/Public/OptiSort/OptiSort/Microcontroller/Libraries/CMSIS/Include\cmsis_gcc.h ****   struct __attribute__((packed)) T_UINT32 { uint32_t v; };
  75:C:/Users/Public/OptiSort/OptiSort/Microcontroller/Libraries/CMSIS/Include\cmsis_gcc.h ****   #pragma GCC diagnostic pop
  76:C:/Users/Public/OptiSort/OptiSort/Microcontroller/Libraries/CMSIS/Include\cmsis_gcc.h ****   #define __UNALIGNED_UINT32(x)                  (((struct T_UINT32 *)(x))->v)
  77:C:/Users/Public/OptiSort/OptiSort/Microcontroller/Libraries/CMSIS/Include\cmsis_gcc.h **** #endif
  78:C:/Users/Public/OptiSort/OptiSort/Microcontroller/Libraries/CMSIS/Include\cmsis_gcc.h **** #ifndef   __UNALIGNED_UINT16_WRITE
  79:C:/Users/Public/OptiSort/OptiSort/Microcontroller/Libraries/CMSIS/Include\cmsis_gcc.h ****   #pragma GCC diagnostic push
  80:C:/Users/Public/OptiSort/OptiSort/Microcontroller/Libraries/CMSIS/Include\cmsis_gcc.h ****   #pragma GCC diagnostic ignored "-Wpacked"
  81:C:/Users/Public/OptiSort/OptiSort/Microcontroller/Libraries/CMSIS/Include\cmsis_gcc.h ****   #pragma GCC diagnostic ignored "-Wattributes"
  82:C:/Users/Public/OptiSort/OptiSort/Microcontroller/Libraries/CMSIS/Include\cmsis_gcc.h ****   __PACKED_STRUCT T_UINT16_WRITE { uint16_t v; };
  83:C:/Users/Public/OptiSort/OptiSort/Microcontroller/Libraries/CMSIS/Include\cmsis_gcc.h ****   #pragma GCC diagnostic pop
  84:C:/Users/Public/OptiSort/OptiSort/Microcontroller/Libraries/CMSIS/Include\cmsis_gcc.h ****   #define __UNALIGNED_UINT16_WRITE(addr, val)    (void)((((struct T_UINT16_WRITE *)(void *)(addr))-
  85:C:/Users/Public/OptiSort/OptiSort/Microcontroller/Libraries/CMSIS/Include\cmsis_gcc.h **** #endif
  86:C:/Users/Public/OptiSort/OptiSort/Microcontroller/Libraries/CMSIS/Include\cmsis_gcc.h **** #ifndef   __UNALIGNED_UINT16_READ
  87:C:/Users/Public/OptiSort/OptiSort/Microcontroller/Libraries/CMSIS/Include\cmsis_gcc.h ****   #pragma GCC diagnostic push
  88:C:/Users/Public/OptiSort/OptiSort/Microcontroller/Libraries/CMSIS/Include\cmsis_gcc.h ****   #pragma GCC diagnostic ignored "-Wpacked"
  89:C:/Users/Public/OptiSort/OptiSort/Microcontroller/Libraries/CMSIS/Include\cmsis_gcc.h ****   #pragma GCC diagnostic ignored "-Wattributes"
  90:C:/Users/Public/OptiSort/OptiSort/Microcontroller/Libraries/CMSIS/Include\cmsis_gcc.h ****   __PACKED_STRUCT T_UINT16_READ { uint16_t v; };
  91:C:/Users/Public/OptiSort/OptiSort/Microcontroller/Libraries/CMSIS/Include\cmsis_gcc.h ****   #pragma GCC diagnostic pop
  92:C:/Users/Public/OptiSort/OptiSort/Microcontroller/Libraries/CMSIS/Include\cmsis_gcc.h ****   #define __UNALIGNED_UINT16_READ(addr)          (((const struct T_UINT16_READ *)(const void *)(add
  93:C:/Users/Public/OptiSort/OptiSort/Microcontroller/Libraries/CMSIS/Include\cmsis_gcc.h **** #endif
  94:C:/Users/Public/OptiSort/OptiSort/Microcontroller/Libraries/CMSIS/Include\cmsis_gcc.h **** #ifndef   __UNALIGNED_UINT32_WRITE
  95:C:/Users/Public/OptiSort/OptiSort/Microcontroller/Libraries/CMSIS/Include\cmsis_gcc.h ****   #pragma GCC diagnostic push
  96:C:/Users/Public/OptiSort/OptiSort/Microcontroller/Libraries/CMSIS/Include\cmsis_gcc.h ****   #pragma GCC diagnostic ignored "-Wpacked"
  97:C:/Users/Public/OptiSort/OptiSort/Microcontroller/Libraries/CMSIS/Include\cmsis_gcc.h ****   #pragma GCC diagnostic ignored "-Wattributes"
  98:C:/Users/Public/OptiSort/OptiSort/Microcontroller/Libraries/CMSIS/Include\cmsis_gcc.h ****   __PACKED_STRUCT T_UINT32_WRITE { uint32_t v; };
  99:C:/Users/Public/OptiSort/OptiSort/Microcontroller/Libraries/CMSIS/Include\cmsis_gcc.h ****   #pragma GCC diagnostic pop
 100:C:/Users/Public/OptiSort/OptiSort/Microcontroller/Libraries/CMSIS/Include\cmsis_gcc.h ****   #define __UNALIGNED_UINT32_WRITE(addr, val)    (void)((((struct T_UINT32_WRITE *)(void *)(addr))-
 101:C:/Users/Public/OptiSort/OptiSort/Microcontroller/Libraries/CMSIS/Include\cmsis_gcc.h **** #endif
 102:C:/Users/Public/OptiSort/OptiSort/Microcontroller/Libraries/CMSIS/Include\cmsis_gcc.h **** #ifndef   __UNALIGNED_UINT32_READ
 103:C:/Users/Public/OptiSort/OptiSort/Microcontroller/Libraries/CMSIS/Include\cmsis_gcc.h ****   #pragma GCC diagnostic push
 104:C:/Users/Public/OptiSort/OptiSort/Microcontroller/Libraries/CMSIS/Include\cmsis_gcc.h ****   #pragma GCC diagnostic ignored "-Wpacked"
 105:C:/Users/Public/OptiSort/OptiSort/Microcontroller/Libraries/CMSIS/Include\cmsis_gcc.h ****   #pragma GCC diagnostic ignored "-Wattributes"
 106:C:/Users/Public/OptiSort/OptiSort/Microcontroller/Libraries/CMSIS/Include\cmsis_gcc.h ****   __PACKED_STRUCT T_UINT32_READ { uint32_t v; };
 107:C:/Users/Public/OptiSort/OptiSort/Microcontroller/Libraries/CMSIS/Include\cmsis_gcc.h ****   #pragma GCC diagnostic pop
 108:C:/Users/Public/OptiSort/OptiSort/Microcontroller/Libraries/CMSIS/Include\cmsis_gcc.h ****   #define __UNALIGNED_UINT32_READ(addr)          (((const struct T_UINT32_READ *)(const void *)(add
 109:C:/Users/Public/OptiSort/OptiSort/Microcontroller/Libraries/CMSIS/Include\cmsis_gcc.h **** #endif
 110:C:/Users/Public/OptiSort/OptiSort/Microcontroller/Libraries/CMSIS/Include\cmsis_gcc.h **** #ifndef   __ALIGNED
 111:C:/Users/Public/OptiSort/OptiSort/Microcontroller/Libraries/CMSIS/Include\cmsis_gcc.h ****   #define __ALIGNED(x)                           __attribute__((aligned(x)))
 112:C:/Users/Public/OptiSort/OptiSort/Microcontroller/Libraries/CMSIS/Include\cmsis_gcc.h **** #endif
 113:C:/Users/Public/OptiSort/OptiSort/Microcontroller/Libraries/CMSIS/Include\cmsis_gcc.h **** #ifndef   __RESTRICT
 114:C:/Users/Public/OptiSort/OptiSort/Microcontroller/Libraries/CMSIS/Include\cmsis_gcc.h ****   #define __RESTRICT                             __restrict
 115:C:/Users/Public/OptiSort/OptiSort/Microcontroller/Libraries/CMSIS/Include\cmsis_gcc.h **** #endif
 116:C:/Users/Public/OptiSort/OptiSort/Microcontroller/Libraries/CMSIS/Include\cmsis_gcc.h **** 
 117:C:/Users/Public/OptiSort/OptiSort/Microcontroller/Libraries/CMSIS/Include\cmsis_gcc.h **** 
 118:C:/Users/Public/OptiSort/OptiSort/Microcontroller/Libraries/CMSIS/Include\cmsis_gcc.h **** /* ###########################  Core Function Access  ########################### */
 119:C:/Users/Public/OptiSort/OptiSort/Microcontroller/Libraries/CMSIS/Include\cmsis_gcc.h **** /** \ingroup  CMSIS_Core_FunctionInterface
 120:C:/Users/Public/OptiSort/OptiSort/Microcontroller/Libraries/CMSIS/Include\cmsis_gcc.h ****     \defgroup CMSIS_Core_RegAccFunctions CMSIS Core Register Access Functions
 121:C:/Users/Public/OptiSort/OptiSort/Microcontroller/Libraries/CMSIS/Include\cmsis_gcc.h ****   @{
 122:C:/Users/Public/OptiSort/OptiSort/Microcontroller/Libraries/CMSIS/Include\cmsis_gcc.h ****  */
 123:C:/Users/Public/OptiSort/OptiSort/Microcontroller/Libraries/CMSIS/Include\cmsis_gcc.h **** 
 124:C:/Users/Public/OptiSort/OptiSort/Microcontroller/Libraries/CMSIS/Include\cmsis_gcc.h **** /**
 125:C:/Users/Public/OptiSort/OptiSort/Microcontroller/Libraries/CMSIS/Include\cmsis_gcc.h ****   \brief   Enable IRQ Interrupts
 126:C:/Users/Public/OptiSort/OptiSort/Microcontroller/Libraries/CMSIS/Include\cmsis_gcc.h ****   \details Enables IRQ interrupts by clearing the I-bit in the CPSR.
 127:C:/Users/Public/OptiSort/OptiSort/Microcontroller/Libraries/CMSIS/Include\cmsis_gcc.h ****            Can only be executed in Privileged modes.
 128:C:/Users/Public/OptiSort/OptiSort/Microcontroller/Libraries/CMSIS/Include\cmsis_gcc.h ****  */
 129:C:/Users/Public/OptiSort/OptiSort/Microcontroller/Libraries/CMSIS/Include\cmsis_gcc.h **** __STATIC_FORCEINLINE void __enable_irq(void)
 130:C:/Users/Public/OptiSort/OptiSort/Microcontroller/Libraries/CMSIS/Include\cmsis_gcc.h **** {
 131:C:/Users/Public/OptiSort/OptiSort/Microcontroller/Libraries/CMSIS/Include\cmsis_gcc.h ****   __ASM volatile ("cpsie i" : : : "memory");
 132:C:/Users/Public/OptiSort/OptiSort/Microcontroller/Libraries/CMSIS/Include\cmsis_gcc.h **** }
 133:C:/Users/Public/OptiSort/OptiSort/Microcontroller/Libraries/CMSIS/Include\cmsis_gcc.h **** 
 134:C:/Users/Public/OptiSort/OptiSort/Microcontroller/Libraries/CMSIS/Include\cmsis_gcc.h **** 
 135:C:/Users/Public/OptiSort/OptiSort/Microcontroller/Libraries/CMSIS/Include\cmsis_gcc.h **** /**
 136:C:/Users/Public/OptiSort/OptiSort/Microcontroller/Libraries/CMSIS/Include\cmsis_gcc.h ****   \brief   Disable IRQ Interrupts
 137:C:/Users/Public/OptiSort/OptiSort/Microcontroller/Libraries/CMSIS/Include\cmsis_gcc.h ****   \details Disables IRQ interrupts by setting the I-bit in the CPSR.
 138:C:/Users/Public/OptiSort/OptiSort/Microcontroller/Libraries/CMSIS/Include\cmsis_gcc.h ****            Can only be executed in Privileged modes.
 139:C:/Users/Public/OptiSort/OptiSort/Microcontroller/Libraries/CMSIS/Include\cmsis_gcc.h ****  */
 140:C:/Users/Public/OptiSort/OptiSort/Microcontroller/Libraries/CMSIS/Include\cmsis_gcc.h **** __STATIC_FORCEINLINE void __disable_irq(void)
 141:C:/Users/Public/OptiSort/OptiSort/Microcontroller/Libraries/CMSIS/Include\cmsis_gcc.h **** {
 142:C:/Users/Public/OptiSort/OptiSort/Microcontroller/Libraries/CMSIS/Include\cmsis_gcc.h ****   __ASM volatile ("cpsid i" : : : "memory");
 143:C:/Users/Public/OptiSort/OptiSort/Microcontroller/Libraries/CMSIS/Include\cmsis_gcc.h **** }
 144:C:/Users/Public/OptiSort/OptiSort/Microcontroller/Libraries/CMSIS/Include\cmsis_gcc.h **** 
 145:C:/Users/Public/OptiSort/OptiSort/Microcontroller/Libraries/CMSIS/Include\cmsis_gcc.h **** 
 146:C:/Users/Public/OptiSort/OptiSort/Microcontroller/Libraries/CMSIS/Include\cmsis_gcc.h **** /**
 147:C:/Users/Public/OptiSort/OptiSort/Microcontroller/Libraries/CMSIS/Include\cmsis_gcc.h ****   \brief   Get Control Register
 148:C:/Users/Public/OptiSort/OptiSort/Microcontroller/Libraries/CMSIS/Include\cmsis_gcc.h ****   \details Returns the content of the Control Register.
 149:C:/Users/Public/OptiSort/OptiSort/Microcontroller/Libraries/CMSIS/Include\cmsis_gcc.h ****   \return               Control Register value
 150:C:/Users/Public/OptiSort/OptiSort/Microcontroller/Libraries/CMSIS/Include\cmsis_gcc.h ****  */
 151:C:/Users/Public/OptiSort/OptiSort/Microcontroller/Libraries/CMSIS/Include\cmsis_gcc.h **** __STATIC_FORCEINLINE uint32_t __get_CONTROL(void)
 152:C:/Users/Public/OptiSort/OptiSort/Microcontroller/Libraries/CMSIS/Include\cmsis_gcc.h **** {
 153:C:/Users/Public/OptiSort/OptiSort/Microcontroller/Libraries/CMSIS/Include\cmsis_gcc.h ****   uint32_t result;
 154:C:/Users/Public/OptiSort/OptiSort/Microcontroller/Libraries/CMSIS/Include\cmsis_gcc.h **** 
 155:C:/Users/Public/OptiSort/OptiSort/Microcontroller/Libraries/CMSIS/Include\cmsis_gcc.h ****   __ASM volatile ("MRS %0, control" : "=r" (result) );
 156:C:/Users/Public/OptiSort/OptiSort/Microcontroller/Libraries/CMSIS/Include\cmsis_gcc.h ****   return(result);
 157:C:/Users/Public/OptiSort/OptiSort/Microcontroller/Libraries/CMSIS/Include\cmsis_gcc.h **** }
 158:C:/Users/Public/OptiSort/OptiSort/Microcontroller/Libraries/CMSIS/Include\cmsis_gcc.h **** 
 159:C:/Users/Public/OptiSort/OptiSort/Microcontroller/Libraries/CMSIS/Include\cmsis_gcc.h **** 
 160:C:/Users/Public/OptiSort/OptiSort/Microcontroller/Libraries/CMSIS/Include\cmsis_gcc.h **** #if (defined (__ARM_FEATURE_CMSE ) && (__ARM_FEATURE_CMSE == 3))
 161:C:/Users/Public/OptiSort/OptiSort/Microcontroller/Libraries/CMSIS/Include\cmsis_gcc.h **** /**
 162:C:/Users/Public/OptiSort/OptiSort/Microcontroller/Libraries/CMSIS/Include\cmsis_gcc.h ****   \brief   Get Control Register (non-secure)
 163:C:/Users/Public/OptiSort/OptiSort/Microcontroller/Libraries/CMSIS/Include\cmsis_gcc.h ****   \details Returns the content of the non-secure Control Register when in secure mode.
 164:C:/Users/Public/OptiSort/OptiSort/Microcontroller/Libraries/CMSIS/Include\cmsis_gcc.h ****   \return               non-secure Control Register value
 165:C:/Users/Public/OptiSort/OptiSort/Microcontroller/Libraries/CMSIS/Include\cmsis_gcc.h ****  */
 166:C:/Users/Public/OptiSort/OptiSort/Microcontroller/Libraries/CMSIS/Include\cmsis_gcc.h **** __STATIC_FORCEINLINE uint32_t __TZ_get_CONTROL_NS(void)
 167:C:/Users/Public/OptiSort/OptiSort/Microcontroller/Libraries/CMSIS/Include\cmsis_gcc.h **** {
 168:C:/Users/Public/OptiSort/OptiSort/Microcontroller/Libraries/CMSIS/Include\cmsis_gcc.h ****   uint32_t result;
 169:C:/Users/Public/OptiSort/OptiSort/Microcontroller/Libraries/CMSIS/Include\cmsis_gcc.h **** 
 170:C:/Users/Public/OptiSort/OptiSort/Microcontroller/Libraries/CMSIS/Include\cmsis_gcc.h ****   __ASM volatile ("MRS %0, control_ns" : "=r" (result) );
 171:C:/Users/Public/OptiSort/OptiSort/Microcontroller/Libraries/CMSIS/Include\cmsis_gcc.h ****   return(result);
 172:C:/Users/Public/OptiSort/OptiSort/Microcontroller/Libraries/CMSIS/Include\cmsis_gcc.h **** }
 173:C:/Users/Public/OptiSort/OptiSort/Microcontroller/Libraries/CMSIS/Include\cmsis_gcc.h **** #endif
 174:C:/Users/Public/OptiSort/OptiSort/Microcontroller/Libraries/CMSIS/Include\cmsis_gcc.h **** 
 175:C:/Users/Public/OptiSort/OptiSort/Microcontroller/Libraries/CMSIS/Include\cmsis_gcc.h **** 
 176:C:/Users/Public/OptiSort/OptiSort/Microcontroller/Libraries/CMSIS/Include\cmsis_gcc.h **** /**
 177:C:/Users/Public/OptiSort/OptiSort/Microcontroller/Libraries/CMSIS/Include\cmsis_gcc.h ****   \brief   Set Control Register
 178:C:/Users/Public/OptiSort/OptiSort/Microcontroller/Libraries/CMSIS/Include\cmsis_gcc.h ****   \details Writes the given value to the Control Register.
 179:C:/Users/Public/OptiSort/OptiSort/Microcontroller/Libraries/CMSIS/Include\cmsis_gcc.h ****   \param [in]    control  Control Register value to set
 180:C:/Users/Public/OptiSort/OptiSort/Microcontroller/Libraries/CMSIS/Include\cmsis_gcc.h ****  */
 181:C:/Users/Public/OptiSort/OptiSort/Microcontroller/Libraries/CMSIS/Include\cmsis_gcc.h **** __STATIC_FORCEINLINE void __set_CONTROL(uint32_t control)
 182:C:/Users/Public/OptiSort/OptiSort/Microcontroller/Libraries/CMSIS/Include\cmsis_gcc.h **** {
 183:C:/Users/Public/OptiSort/OptiSort/Microcontroller/Libraries/CMSIS/Include\cmsis_gcc.h ****   __ASM volatile ("MSR control, %0" : : "r" (control) : "memory");
 184:C:/Users/Public/OptiSort/OptiSort/Microcontroller/Libraries/CMSIS/Include\cmsis_gcc.h **** }
 185:C:/Users/Public/OptiSort/OptiSort/Microcontroller/Libraries/CMSIS/Include\cmsis_gcc.h **** 
 186:C:/Users/Public/OptiSort/OptiSort/Microcontroller/Libraries/CMSIS/Include\cmsis_gcc.h **** 
 187:C:/Users/Public/OptiSort/OptiSort/Microcontroller/Libraries/CMSIS/Include\cmsis_gcc.h **** #if (defined (__ARM_FEATURE_CMSE ) && (__ARM_FEATURE_CMSE == 3))
 188:C:/Users/Public/OptiSort/OptiSort/Microcontroller/Libraries/CMSIS/Include\cmsis_gcc.h **** /**
 189:C:/Users/Public/OptiSort/OptiSort/Microcontroller/Libraries/CMSIS/Include\cmsis_gcc.h ****   \brief   Set Control Register (non-secure)
 190:C:/Users/Public/OptiSort/OptiSort/Microcontroller/Libraries/CMSIS/Include\cmsis_gcc.h ****   \details Writes the given value to the non-secure Control Register when in secure state.
 191:C:/Users/Public/OptiSort/OptiSort/Microcontroller/Libraries/CMSIS/Include\cmsis_gcc.h ****   \param [in]    control  Control Register value to set
 192:C:/Users/Public/OptiSort/OptiSort/Microcontroller/Libraries/CMSIS/Include\cmsis_gcc.h ****  */
 193:C:/Users/Public/OptiSort/OptiSort/Microcontroller/Libraries/CMSIS/Include\cmsis_gcc.h **** __STATIC_FORCEINLINE void __TZ_set_CONTROL_NS(uint32_t control)
 194:C:/Users/Public/OptiSort/OptiSort/Microcontroller/Libraries/CMSIS/Include\cmsis_gcc.h **** {
 195:C:/Users/Public/OptiSort/OptiSort/Microcontroller/Libraries/CMSIS/Include\cmsis_gcc.h ****   __ASM volatile ("MSR control_ns, %0" : : "r" (control) : "memory");
 196:C:/Users/Public/OptiSort/OptiSort/Microcontroller/Libraries/CMSIS/Include\cmsis_gcc.h **** }
 197:C:/Users/Public/OptiSort/OptiSort/Microcontroller/Libraries/CMSIS/Include\cmsis_gcc.h **** #endif
 198:C:/Users/Public/OptiSort/OptiSort/Microcontroller/Libraries/CMSIS/Include\cmsis_gcc.h **** 
 199:C:/Users/Public/OptiSort/OptiSort/Microcontroller/Libraries/CMSIS/Include\cmsis_gcc.h **** 
 200:C:/Users/Public/OptiSort/OptiSort/Microcontroller/Libraries/CMSIS/Include\cmsis_gcc.h **** /**
 201:C:/Users/Public/OptiSort/OptiSort/Microcontroller/Libraries/CMSIS/Include\cmsis_gcc.h ****   \brief   Get IPSR Register
 202:C:/Users/Public/OptiSort/OptiSort/Microcontroller/Libraries/CMSIS/Include\cmsis_gcc.h ****   \details Returns the content of the IPSR Register.
 203:C:/Users/Public/OptiSort/OptiSort/Microcontroller/Libraries/CMSIS/Include\cmsis_gcc.h ****   \return               IPSR Register value
 204:C:/Users/Public/OptiSort/OptiSort/Microcontroller/Libraries/CMSIS/Include\cmsis_gcc.h ****  */
 205:C:/Users/Public/OptiSort/OptiSort/Microcontroller/Libraries/CMSIS/Include\cmsis_gcc.h **** __STATIC_FORCEINLINE uint32_t __get_IPSR(void)
 206:C:/Users/Public/OptiSort/OptiSort/Microcontroller/Libraries/CMSIS/Include\cmsis_gcc.h **** {
 207:C:/Users/Public/OptiSort/OptiSort/Microcontroller/Libraries/CMSIS/Include\cmsis_gcc.h ****   uint32_t result;
 208:C:/Users/Public/OptiSort/OptiSort/Microcontroller/Libraries/CMSIS/Include\cmsis_gcc.h **** 
 209:C:/Users/Public/OptiSort/OptiSort/Microcontroller/Libraries/CMSIS/Include\cmsis_gcc.h ****   __ASM volatile ("MRS %0, ipsr" : "=r" (result) );
 210:C:/Users/Public/OptiSort/OptiSort/Microcontroller/Libraries/CMSIS/Include\cmsis_gcc.h ****   return(result);
 211:C:/Users/Public/OptiSort/OptiSort/Microcontroller/Libraries/CMSIS/Include\cmsis_gcc.h **** }
 212:C:/Users/Public/OptiSort/OptiSort/Microcontroller/Libraries/CMSIS/Include\cmsis_gcc.h **** 
 213:C:/Users/Public/OptiSort/OptiSort/Microcontroller/Libraries/CMSIS/Include\cmsis_gcc.h **** 
 214:C:/Users/Public/OptiSort/OptiSort/Microcontroller/Libraries/CMSIS/Include\cmsis_gcc.h **** /**
 215:C:/Users/Public/OptiSort/OptiSort/Microcontroller/Libraries/CMSIS/Include\cmsis_gcc.h ****   \brief   Get APSR Register
 216:C:/Users/Public/OptiSort/OptiSort/Microcontroller/Libraries/CMSIS/Include\cmsis_gcc.h ****   \details Returns the content of the APSR Register.
 217:C:/Users/Public/OptiSort/OptiSort/Microcontroller/Libraries/CMSIS/Include\cmsis_gcc.h ****   \return               APSR Register value
 218:C:/Users/Public/OptiSort/OptiSort/Microcontroller/Libraries/CMSIS/Include\cmsis_gcc.h ****  */
 219:C:/Users/Public/OptiSort/OptiSort/Microcontroller/Libraries/CMSIS/Include\cmsis_gcc.h **** __STATIC_FORCEINLINE uint32_t __get_APSR(void)
 220:C:/Users/Public/OptiSort/OptiSort/Microcontroller/Libraries/CMSIS/Include\cmsis_gcc.h **** {
 221:C:/Users/Public/OptiSort/OptiSort/Microcontroller/Libraries/CMSIS/Include\cmsis_gcc.h ****   uint32_t result;
 222:C:/Users/Public/OptiSort/OptiSort/Microcontroller/Libraries/CMSIS/Include\cmsis_gcc.h **** 
 223:C:/Users/Public/OptiSort/OptiSort/Microcontroller/Libraries/CMSIS/Include\cmsis_gcc.h ****   __ASM volatile ("MRS %0, apsr" : "=r" (result) );
 224:C:/Users/Public/OptiSort/OptiSort/Microcontroller/Libraries/CMSIS/Include\cmsis_gcc.h ****   return(result);
 225:C:/Users/Public/OptiSort/OptiSort/Microcontroller/Libraries/CMSIS/Include\cmsis_gcc.h **** }
 226:C:/Users/Public/OptiSort/OptiSort/Microcontroller/Libraries/CMSIS/Include\cmsis_gcc.h **** 
 227:C:/Users/Public/OptiSort/OptiSort/Microcontroller/Libraries/CMSIS/Include\cmsis_gcc.h **** 
 228:C:/Users/Public/OptiSort/OptiSort/Microcontroller/Libraries/CMSIS/Include\cmsis_gcc.h **** /**
 229:C:/Users/Public/OptiSort/OptiSort/Microcontroller/Libraries/CMSIS/Include\cmsis_gcc.h ****   \brief   Get xPSR Register
 230:C:/Users/Public/OptiSort/OptiSort/Microcontroller/Libraries/CMSIS/Include\cmsis_gcc.h ****   \details Returns the content of the xPSR Register.
 231:C:/Users/Public/OptiSort/OptiSort/Microcontroller/Libraries/CMSIS/Include\cmsis_gcc.h ****   \return               xPSR Register value
 232:C:/Users/Public/OptiSort/OptiSort/Microcontroller/Libraries/CMSIS/Include\cmsis_gcc.h ****  */
 233:C:/Users/Public/OptiSort/OptiSort/Microcontroller/Libraries/CMSIS/Include\cmsis_gcc.h **** __STATIC_FORCEINLINE uint32_t __get_xPSR(void)
 234:C:/Users/Public/OptiSort/OptiSort/Microcontroller/Libraries/CMSIS/Include\cmsis_gcc.h **** {
 235:C:/Users/Public/OptiSort/OptiSort/Microcontroller/Libraries/CMSIS/Include\cmsis_gcc.h ****   uint32_t result;
 236:C:/Users/Public/OptiSort/OptiSort/Microcontroller/Libraries/CMSIS/Include\cmsis_gcc.h **** 
 237:C:/Users/Public/OptiSort/OptiSort/Microcontroller/Libraries/CMSIS/Include\cmsis_gcc.h ****   __ASM volatile ("MRS %0, xpsr" : "=r" (result) );
 238:C:/Users/Public/OptiSort/OptiSort/Microcontroller/Libraries/CMSIS/Include\cmsis_gcc.h ****   return(result);
 239:C:/Users/Public/OptiSort/OptiSort/Microcontroller/Libraries/CMSIS/Include\cmsis_gcc.h **** }
 240:C:/Users/Public/OptiSort/OptiSort/Microcontroller/Libraries/CMSIS/Include\cmsis_gcc.h **** 
 241:C:/Users/Public/OptiSort/OptiSort/Microcontroller/Libraries/CMSIS/Include\cmsis_gcc.h **** 
 242:C:/Users/Public/OptiSort/OptiSort/Microcontroller/Libraries/CMSIS/Include\cmsis_gcc.h **** /**
 243:C:/Users/Public/OptiSort/OptiSort/Microcontroller/Libraries/CMSIS/Include\cmsis_gcc.h ****   \brief   Get Process Stack Pointer
 244:C:/Users/Public/OptiSort/OptiSort/Microcontroller/Libraries/CMSIS/Include\cmsis_gcc.h ****   \details Returns the current value of the Process Stack Pointer (PSP).
 245:C:/Users/Public/OptiSort/OptiSort/Microcontroller/Libraries/CMSIS/Include\cmsis_gcc.h ****   \return               PSP Register value
 246:C:/Users/Public/OptiSort/OptiSort/Microcontroller/Libraries/CMSIS/Include\cmsis_gcc.h ****  */
 247:C:/Users/Public/OptiSort/OptiSort/Microcontroller/Libraries/CMSIS/Include\cmsis_gcc.h **** __STATIC_FORCEINLINE uint32_t __get_PSP(void)
 248:C:/Users/Public/OptiSort/OptiSort/Microcontroller/Libraries/CMSIS/Include\cmsis_gcc.h **** {
 249:C:/Users/Public/OptiSort/OptiSort/Microcontroller/Libraries/CMSIS/Include\cmsis_gcc.h ****   register uint32_t result;
 250:C:/Users/Public/OptiSort/OptiSort/Microcontroller/Libraries/CMSIS/Include\cmsis_gcc.h **** 
 251:C:/Users/Public/OptiSort/OptiSort/Microcontroller/Libraries/CMSIS/Include\cmsis_gcc.h ****   __ASM volatile ("MRS %0, psp"  : "=r" (result) );
 252:C:/Users/Public/OptiSort/OptiSort/Microcontroller/Libraries/CMSIS/Include\cmsis_gcc.h ****   return(result);
 253:C:/Users/Public/OptiSort/OptiSort/Microcontroller/Libraries/CMSIS/Include\cmsis_gcc.h **** }
 254:C:/Users/Public/OptiSort/OptiSort/Microcontroller/Libraries/CMSIS/Include\cmsis_gcc.h **** 
 255:C:/Users/Public/OptiSort/OptiSort/Microcontroller/Libraries/CMSIS/Include\cmsis_gcc.h **** 
 256:C:/Users/Public/OptiSort/OptiSort/Microcontroller/Libraries/CMSIS/Include\cmsis_gcc.h **** #if (defined (__ARM_FEATURE_CMSE ) && (__ARM_FEATURE_CMSE == 3))
 257:C:/Users/Public/OptiSort/OptiSort/Microcontroller/Libraries/CMSIS/Include\cmsis_gcc.h **** /**
 258:C:/Users/Public/OptiSort/OptiSort/Microcontroller/Libraries/CMSIS/Include\cmsis_gcc.h ****   \brief   Get Process Stack Pointer (non-secure)
 259:C:/Users/Public/OptiSort/OptiSort/Microcontroller/Libraries/CMSIS/Include\cmsis_gcc.h ****   \details Returns the current value of the non-secure Process Stack Pointer (PSP) when in secure s
 260:C:/Users/Public/OptiSort/OptiSort/Microcontroller/Libraries/CMSIS/Include\cmsis_gcc.h ****   \return               PSP Register value
 261:C:/Users/Public/OptiSort/OptiSort/Microcontroller/Libraries/CMSIS/Include\cmsis_gcc.h ****  */
 262:C:/Users/Public/OptiSort/OptiSort/Microcontroller/Libraries/CMSIS/Include\cmsis_gcc.h **** __STATIC_FORCEINLINE uint32_t __TZ_get_PSP_NS(void)
 263:C:/Users/Public/OptiSort/OptiSort/Microcontroller/Libraries/CMSIS/Include\cmsis_gcc.h **** {
 264:C:/Users/Public/OptiSort/OptiSort/Microcontroller/Libraries/CMSIS/Include\cmsis_gcc.h ****   register uint32_t result;
 265:C:/Users/Public/OptiSort/OptiSort/Microcontroller/Libraries/CMSIS/Include\cmsis_gcc.h **** 
 266:C:/Users/Public/OptiSort/OptiSort/Microcontroller/Libraries/CMSIS/Include\cmsis_gcc.h ****   __ASM volatile ("MRS %0, psp_ns"  : "=r" (result) );
 267:C:/Users/Public/OptiSort/OptiSort/Microcontroller/Libraries/CMSIS/Include\cmsis_gcc.h ****   return(result);
 268:C:/Users/Public/OptiSort/OptiSort/Microcontroller/Libraries/CMSIS/Include\cmsis_gcc.h **** }
 269:C:/Users/Public/OptiSort/OptiSort/Microcontroller/Libraries/CMSIS/Include\cmsis_gcc.h **** #endif
 270:C:/Users/Public/OptiSort/OptiSort/Microcontroller/Libraries/CMSIS/Include\cmsis_gcc.h **** 
 271:C:/Users/Public/OptiSort/OptiSort/Microcontroller/Libraries/CMSIS/Include\cmsis_gcc.h **** 
 272:C:/Users/Public/OptiSort/OptiSort/Microcontroller/Libraries/CMSIS/Include\cmsis_gcc.h **** /**
 273:C:/Users/Public/OptiSort/OptiSort/Microcontroller/Libraries/CMSIS/Include\cmsis_gcc.h ****   \brief   Set Process Stack Pointer
 274:C:/Users/Public/OptiSort/OptiSort/Microcontroller/Libraries/CMSIS/Include\cmsis_gcc.h ****   \details Assigns the given value to the Process Stack Pointer (PSP).
 275:C:/Users/Public/OptiSort/OptiSort/Microcontroller/Libraries/CMSIS/Include\cmsis_gcc.h ****   \param [in]    topOfProcStack  Process Stack Pointer value to set
 276:C:/Users/Public/OptiSort/OptiSort/Microcontroller/Libraries/CMSIS/Include\cmsis_gcc.h ****  */
 277:C:/Users/Public/OptiSort/OptiSort/Microcontroller/Libraries/CMSIS/Include\cmsis_gcc.h **** __STATIC_FORCEINLINE void __set_PSP(uint32_t topOfProcStack)
 278:C:/Users/Public/OptiSort/OptiSort/Microcontroller/Libraries/CMSIS/Include\cmsis_gcc.h **** {
 279:C:/Users/Public/OptiSort/OptiSort/Microcontroller/Libraries/CMSIS/Include\cmsis_gcc.h ****   __ASM volatile ("MSR psp, %0" : : "r" (topOfProcStack) : );
 280:C:/Users/Public/OptiSort/OptiSort/Microcontroller/Libraries/CMSIS/Include\cmsis_gcc.h **** }
 281:C:/Users/Public/OptiSort/OptiSort/Microcontroller/Libraries/CMSIS/Include\cmsis_gcc.h **** 
 282:C:/Users/Public/OptiSort/OptiSort/Microcontroller/Libraries/CMSIS/Include\cmsis_gcc.h **** 
 283:C:/Users/Public/OptiSort/OptiSort/Microcontroller/Libraries/CMSIS/Include\cmsis_gcc.h **** #if (defined (__ARM_FEATURE_CMSE ) && (__ARM_FEATURE_CMSE == 3))
 284:C:/Users/Public/OptiSort/OptiSort/Microcontroller/Libraries/CMSIS/Include\cmsis_gcc.h **** /**
 285:C:/Users/Public/OptiSort/OptiSort/Microcontroller/Libraries/CMSIS/Include\cmsis_gcc.h ****   \brief   Set Process Stack Pointer (non-secure)
 286:C:/Users/Public/OptiSort/OptiSort/Microcontroller/Libraries/CMSIS/Include\cmsis_gcc.h ****   \details Assigns the given value to the non-secure Process Stack Pointer (PSP) when in secure sta
 287:C:/Users/Public/OptiSort/OptiSort/Microcontroller/Libraries/CMSIS/Include\cmsis_gcc.h ****   \param [in]    topOfProcStack  Process Stack Pointer value to set
 288:C:/Users/Public/OptiSort/OptiSort/Microcontroller/Libraries/CMSIS/Include\cmsis_gcc.h ****  */
 289:C:/Users/Public/OptiSort/OptiSort/Microcontroller/Libraries/CMSIS/Include\cmsis_gcc.h **** __STATIC_FORCEINLINE void __TZ_set_PSP_NS(uint32_t topOfProcStack)
 290:C:/Users/Public/OptiSort/OptiSort/Microcontroller/Libraries/CMSIS/Include\cmsis_gcc.h **** {
 291:C:/Users/Public/OptiSort/OptiSort/Microcontroller/Libraries/CMSIS/Include\cmsis_gcc.h ****   __ASM volatile ("MSR psp_ns, %0" : : "r" (topOfProcStack) : );
 292:C:/Users/Public/OptiSort/OptiSort/Microcontroller/Libraries/CMSIS/Include\cmsis_gcc.h **** }
 293:C:/Users/Public/OptiSort/OptiSort/Microcontroller/Libraries/CMSIS/Include\cmsis_gcc.h **** #endif
 294:C:/Users/Public/OptiSort/OptiSort/Microcontroller/Libraries/CMSIS/Include\cmsis_gcc.h **** 
 295:C:/Users/Public/OptiSort/OptiSort/Microcontroller/Libraries/CMSIS/Include\cmsis_gcc.h **** 
 296:C:/Users/Public/OptiSort/OptiSort/Microcontroller/Libraries/CMSIS/Include\cmsis_gcc.h **** /**
 297:C:/Users/Public/OptiSort/OptiSort/Microcontroller/Libraries/CMSIS/Include\cmsis_gcc.h ****   \brief   Get Main Stack Pointer
 298:C:/Users/Public/OptiSort/OptiSort/Microcontroller/Libraries/CMSIS/Include\cmsis_gcc.h ****   \details Returns the current value of the Main Stack Pointer (MSP).
 299:C:/Users/Public/OptiSort/OptiSort/Microcontroller/Libraries/CMSIS/Include\cmsis_gcc.h ****   \return               MSP Register value
 300:C:/Users/Public/OptiSort/OptiSort/Microcontroller/Libraries/CMSIS/Include\cmsis_gcc.h ****  */
 301:C:/Users/Public/OptiSort/OptiSort/Microcontroller/Libraries/CMSIS/Include\cmsis_gcc.h **** __STATIC_FORCEINLINE uint32_t __get_MSP(void)
 302:C:/Users/Public/OptiSort/OptiSort/Microcontroller/Libraries/CMSIS/Include\cmsis_gcc.h **** {
 303:C:/Users/Public/OptiSort/OptiSort/Microcontroller/Libraries/CMSIS/Include\cmsis_gcc.h ****   register uint32_t result;
 304:C:/Users/Public/OptiSort/OptiSort/Microcontroller/Libraries/CMSIS/Include\cmsis_gcc.h **** 
 305:C:/Users/Public/OptiSort/OptiSort/Microcontroller/Libraries/CMSIS/Include\cmsis_gcc.h ****   __ASM volatile ("MRS %0, msp" : "=r" (result) );
 306:C:/Users/Public/OptiSort/OptiSort/Microcontroller/Libraries/CMSIS/Include\cmsis_gcc.h ****   return(result);
 307:C:/Users/Public/OptiSort/OptiSort/Microcontroller/Libraries/CMSIS/Include\cmsis_gcc.h **** }
 308:C:/Users/Public/OptiSort/OptiSort/Microcontroller/Libraries/CMSIS/Include\cmsis_gcc.h **** 
 309:C:/Users/Public/OptiSort/OptiSort/Microcontroller/Libraries/CMSIS/Include\cmsis_gcc.h **** 
 310:C:/Users/Public/OptiSort/OptiSort/Microcontroller/Libraries/CMSIS/Include\cmsis_gcc.h **** #if (defined (__ARM_FEATURE_CMSE ) && (__ARM_FEATURE_CMSE == 3))
 311:C:/Users/Public/OptiSort/OptiSort/Microcontroller/Libraries/CMSIS/Include\cmsis_gcc.h **** /**
 312:C:/Users/Public/OptiSort/OptiSort/Microcontroller/Libraries/CMSIS/Include\cmsis_gcc.h ****   \brief   Get Main Stack Pointer (non-secure)
 313:C:/Users/Public/OptiSort/OptiSort/Microcontroller/Libraries/CMSIS/Include\cmsis_gcc.h ****   \details Returns the current value of the non-secure Main Stack Pointer (MSP) when in secure stat
 314:C:/Users/Public/OptiSort/OptiSort/Microcontroller/Libraries/CMSIS/Include\cmsis_gcc.h ****   \return               MSP Register value
 315:C:/Users/Public/OptiSort/OptiSort/Microcontroller/Libraries/CMSIS/Include\cmsis_gcc.h ****  */
 316:C:/Users/Public/OptiSort/OptiSort/Microcontroller/Libraries/CMSIS/Include\cmsis_gcc.h **** __STATIC_FORCEINLINE uint32_t __TZ_get_MSP_NS(void)
 317:C:/Users/Public/OptiSort/OptiSort/Microcontroller/Libraries/CMSIS/Include\cmsis_gcc.h **** {
 318:C:/Users/Public/OptiSort/OptiSort/Microcontroller/Libraries/CMSIS/Include\cmsis_gcc.h ****   register uint32_t result;
 319:C:/Users/Public/OptiSort/OptiSort/Microcontroller/Libraries/CMSIS/Include\cmsis_gcc.h **** 
 320:C:/Users/Public/OptiSort/OptiSort/Microcontroller/Libraries/CMSIS/Include\cmsis_gcc.h ****   __ASM volatile ("MRS %0, msp_ns" : "=r" (result) );
 321:C:/Users/Public/OptiSort/OptiSort/Microcontroller/Libraries/CMSIS/Include\cmsis_gcc.h ****   return(result);
 322:C:/Users/Public/OptiSort/OptiSort/Microcontroller/Libraries/CMSIS/Include\cmsis_gcc.h **** }
 323:C:/Users/Public/OptiSort/OptiSort/Microcontroller/Libraries/CMSIS/Include\cmsis_gcc.h **** #endif
 324:C:/Users/Public/OptiSort/OptiSort/Microcontroller/Libraries/CMSIS/Include\cmsis_gcc.h **** 
 325:C:/Users/Public/OptiSort/OptiSort/Microcontroller/Libraries/CMSIS/Include\cmsis_gcc.h **** 
 326:C:/Users/Public/OptiSort/OptiSort/Microcontroller/Libraries/CMSIS/Include\cmsis_gcc.h **** /**
 327:C:/Users/Public/OptiSort/OptiSort/Microcontroller/Libraries/CMSIS/Include\cmsis_gcc.h ****   \brief   Set Main Stack Pointer
 328:C:/Users/Public/OptiSort/OptiSort/Microcontroller/Libraries/CMSIS/Include\cmsis_gcc.h ****   \details Assigns the given value to the Main Stack Pointer (MSP).
 329:C:/Users/Public/OptiSort/OptiSort/Microcontroller/Libraries/CMSIS/Include\cmsis_gcc.h ****   \param [in]    topOfMainStack  Main Stack Pointer value to set
 330:C:/Users/Public/OptiSort/OptiSort/Microcontroller/Libraries/CMSIS/Include\cmsis_gcc.h ****  */
 331:C:/Users/Public/OptiSort/OptiSort/Microcontroller/Libraries/CMSIS/Include\cmsis_gcc.h **** __STATIC_FORCEINLINE void __set_MSP(uint32_t topOfMainStack)
 332:C:/Users/Public/OptiSort/OptiSort/Microcontroller/Libraries/CMSIS/Include\cmsis_gcc.h **** {
 333:C:/Users/Public/OptiSort/OptiSort/Microcontroller/Libraries/CMSIS/Include\cmsis_gcc.h ****   __ASM volatile ("MSR msp, %0" : : "r" (topOfMainStack) : );
 334:C:/Users/Public/OptiSort/OptiSort/Microcontroller/Libraries/CMSIS/Include\cmsis_gcc.h **** }
 335:C:/Users/Public/OptiSort/OptiSort/Microcontroller/Libraries/CMSIS/Include\cmsis_gcc.h **** 
 336:C:/Users/Public/OptiSort/OptiSort/Microcontroller/Libraries/CMSIS/Include\cmsis_gcc.h **** 
 337:C:/Users/Public/OptiSort/OptiSort/Microcontroller/Libraries/CMSIS/Include\cmsis_gcc.h **** #if (defined (__ARM_FEATURE_CMSE ) && (__ARM_FEATURE_CMSE == 3))
 338:C:/Users/Public/OptiSort/OptiSort/Microcontroller/Libraries/CMSIS/Include\cmsis_gcc.h **** /**
 339:C:/Users/Public/OptiSort/OptiSort/Microcontroller/Libraries/CMSIS/Include\cmsis_gcc.h ****   \brief   Set Main Stack Pointer (non-secure)
 340:C:/Users/Public/OptiSort/OptiSort/Microcontroller/Libraries/CMSIS/Include\cmsis_gcc.h ****   \details Assigns the given value to the non-secure Main Stack Pointer (MSP) when in secure state.
 341:C:/Users/Public/OptiSort/OptiSort/Microcontroller/Libraries/CMSIS/Include\cmsis_gcc.h ****   \param [in]    topOfMainStack  Main Stack Pointer value to set
 342:C:/Users/Public/OptiSort/OptiSort/Microcontroller/Libraries/CMSIS/Include\cmsis_gcc.h ****  */
 343:C:/Users/Public/OptiSort/OptiSort/Microcontroller/Libraries/CMSIS/Include\cmsis_gcc.h **** __STATIC_FORCEINLINE void __TZ_set_MSP_NS(uint32_t topOfMainStack)
 344:C:/Users/Public/OptiSort/OptiSort/Microcontroller/Libraries/CMSIS/Include\cmsis_gcc.h **** {
 345:C:/Users/Public/OptiSort/OptiSort/Microcontroller/Libraries/CMSIS/Include\cmsis_gcc.h ****   __ASM volatile ("MSR msp_ns, %0" : : "r" (topOfMainStack) : );
 346:C:/Users/Public/OptiSort/OptiSort/Microcontroller/Libraries/CMSIS/Include\cmsis_gcc.h **** }
 347:C:/Users/Public/OptiSort/OptiSort/Microcontroller/Libraries/CMSIS/Include\cmsis_gcc.h **** #endif
 348:C:/Users/Public/OptiSort/OptiSort/Microcontroller/Libraries/CMSIS/Include\cmsis_gcc.h **** 
 349:C:/Users/Public/OptiSort/OptiSort/Microcontroller/Libraries/CMSIS/Include\cmsis_gcc.h **** 
 350:C:/Users/Public/OptiSort/OptiSort/Microcontroller/Libraries/CMSIS/Include\cmsis_gcc.h **** #if (defined (__ARM_FEATURE_CMSE ) && (__ARM_FEATURE_CMSE == 3))
 351:C:/Users/Public/OptiSort/OptiSort/Microcontroller/Libraries/CMSIS/Include\cmsis_gcc.h **** /**
 352:C:/Users/Public/OptiSort/OptiSort/Microcontroller/Libraries/CMSIS/Include\cmsis_gcc.h ****   \brief   Get Stack Pointer (non-secure)
 353:C:/Users/Public/OptiSort/OptiSort/Microcontroller/Libraries/CMSIS/Include\cmsis_gcc.h ****   \details Returns the current value of the non-secure Stack Pointer (SP) when in secure state.
 354:C:/Users/Public/OptiSort/OptiSort/Microcontroller/Libraries/CMSIS/Include\cmsis_gcc.h ****   \return               SP Register value
 355:C:/Users/Public/OptiSort/OptiSort/Microcontroller/Libraries/CMSIS/Include\cmsis_gcc.h ****  */
 356:C:/Users/Public/OptiSort/OptiSort/Microcontroller/Libraries/CMSIS/Include\cmsis_gcc.h **** __STATIC_FORCEINLINE uint32_t __TZ_get_SP_NS(void)
 357:C:/Users/Public/OptiSort/OptiSort/Microcontroller/Libraries/CMSIS/Include\cmsis_gcc.h **** {
 358:C:/Users/Public/OptiSort/OptiSort/Microcontroller/Libraries/CMSIS/Include\cmsis_gcc.h ****   register uint32_t result;
 359:C:/Users/Public/OptiSort/OptiSort/Microcontroller/Libraries/CMSIS/Include\cmsis_gcc.h **** 
 360:C:/Users/Public/OptiSort/OptiSort/Microcontroller/Libraries/CMSIS/Include\cmsis_gcc.h ****   __ASM volatile ("MRS %0, sp_ns" : "=r" (result) );
 361:C:/Users/Public/OptiSort/OptiSort/Microcontroller/Libraries/CMSIS/Include\cmsis_gcc.h ****   return(result);
 362:C:/Users/Public/OptiSort/OptiSort/Microcontroller/Libraries/CMSIS/Include\cmsis_gcc.h **** }
 363:C:/Users/Public/OptiSort/OptiSort/Microcontroller/Libraries/CMSIS/Include\cmsis_gcc.h **** 
 364:C:/Users/Public/OptiSort/OptiSort/Microcontroller/Libraries/CMSIS/Include\cmsis_gcc.h **** 
 365:C:/Users/Public/OptiSort/OptiSort/Microcontroller/Libraries/CMSIS/Include\cmsis_gcc.h **** /**
 366:C:/Users/Public/OptiSort/OptiSort/Microcontroller/Libraries/CMSIS/Include\cmsis_gcc.h ****   \brief   Set Stack Pointer (non-secure)
 367:C:/Users/Public/OptiSort/OptiSort/Microcontroller/Libraries/CMSIS/Include\cmsis_gcc.h ****   \details Assigns the given value to the non-secure Stack Pointer (SP) when in secure state.
 368:C:/Users/Public/OptiSort/OptiSort/Microcontroller/Libraries/CMSIS/Include\cmsis_gcc.h ****   \param [in]    topOfStack  Stack Pointer value to set
 369:C:/Users/Public/OptiSort/OptiSort/Microcontroller/Libraries/CMSIS/Include\cmsis_gcc.h ****  */
 370:C:/Users/Public/OptiSort/OptiSort/Microcontroller/Libraries/CMSIS/Include\cmsis_gcc.h **** __STATIC_FORCEINLINE void __TZ_set_SP_NS(uint32_t topOfStack)
 371:C:/Users/Public/OptiSort/OptiSort/Microcontroller/Libraries/CMSIS/Include\cmsis_gcc.h **** {
 372:C:/Users/Public/OptiSort/OptiSort/Microcontroller/Libraries/CMSIS/Include\cmsis_gcc.h ****   __ASM volatile ("MSR sp_ns, %0" : : "r" (topOfStack) : );
 373:C:/Users/Public/OptiSort/OptiSort/Microcontroller/Libraries/CMSIS/Include\cmsis_gcc.h **** }
 374:C:/Users/Public/OptiSort/OptiSort/Microcontroller/Libraries/CMSIS/Include\cmsis_gcc.h **** #endif
 375:C:/Users/Public/OptiSort/OptiSort/Microcontroller/Libraries/CMSIS/Include\cmsis_gcc.h **** 
 376:C:/Users/Public/OptiSort/OptiSort/Microcontroller/Libraries/CMSIS/Include\cmsis_gcc.h **** 
 377:C:/Users/Public/OptiSort/OptiSort/Microcontroller/Libraries/CMSIS/Include\cmsis_gcc.h **** /**
 378:C:/Users/Public/OptiSort/OptiSort/Microcontroller/Libraries/CMSIS/Include\cmsis_gcc.h ****   \brief   Get Priority Mask
 379:C:/Users/Public/OptiSort/OptiSort/Microcontroller/Libraries/CMSIS/Include\cmsis_gcc.h ****   \details Returns the current state of the priority mask bit from the Priority Mask Register.
 380:C:/Users/Public/OptiSort/OptiSort/Microcontroller/Libraries/CMSIS/Include\cmsis_gcc.h ****   \return               Priority Mask value
 381:C:/Users/Public/OptiSort/OptiSort/Microcontroller/Libraries/CMSIS/Include\cmsis_gcc.h ****  */
 382:C:/Users/Public/OptiSort/OptiSort/Microcontroller/Libraries/CMSIS/Include\cmsis_gcc.h **** __STATIC_FORCEINLINE uint32_t __get_PRIMASK(void)
 383:C:/Users/Public/OptiSort/OptiSort/Microcontroller/Libraries/CMSIS/Include\cmsis_gcc.h **** {
 384:C:/Users/Public/OptiSort/OptiSort/Microcontroller/Libraries/CMSIS/Include\cmsis_gcc.h ****   uint32_t result;
 385:C:/Users/Public/OptiSort/OptiSort/Microcontroller/Libraries/CMSIS/Include\cmsis_gcc.h **** 
 386:C:/Users/Public/OptiSort/OptiSort/Microcontroller/Libraries/CMSIS/Include\cmsis_gcc.h ****   __ASM volatile ("MRS %0, primask" : "=r" (result) :: "memory");
 387:C:/Users/Public/OptiSort/OptiSort/Microcontroller/Libraries/CMSIS/Include\cmsis_gcc.h ****   return(result);
 388:C:/Users/Public/OptiSort/OptiSort/Microcontroller/Libraries/CMSIS/Include\cmsis_gcc.h **** }
 389:C:/Users/Public/OptiSort/OptiSort/Microcontroller/Libraries/CMSIS/Include\cmsis_gcc.h **** 
 390:C:/Users/Public/OptiSort/OptiSort/Microcontroller/Libraries/CMSIS/Include\cmsis_gcc.h **** 
 391:C:/Users/Public/OptiSort/OptiSort/Microcontroller/Libraries/CMSIS/Include\cmsis_gcc.h **** #if (defined (__ARM_FEATURE_CMSE ) && (__ARM_FEATURE_CMSE == 3))
 392:C:/Users/Public/OptiSort/OptiSort/Microcontroller/Libraries/CMSIS/Include\cmsis_gcc.h **** /**
 393:C:/Users/Public/OptiSort/OptiSort/Microcontroller/Libraries/CMSIS/Include\cmsis_gcc.h ****   \brief   Get Priority Mask (non-secure)
 394:C:/Users/Public/OptiSort/OptiSort/Microcontroller/Libraries/CMSIS/Include\cmsis_gcc.h ****   \details Returns the current state of the non-secure priority mask bit from the Priority Mask Reg
 395:C:/Users/Public/OptiSort/OptiSort/Microcontroller/Libraries/CMSIS/Include\cmsis_gcc.h ****   \return               Priority Mask value
 396:C:/Users/Public/OptiSort/OptiSort/Microcontroller/Libraries/CMSIS/Include\cmsis_gcc.h ****  */
 397:C:/Users/Public/OptiSort/OptiSort/Microcontroller/Libraries/CMSIS/Include\cmsis_gcc.h **** __STATIC_FORCEINLINE uint32_t __TZ_get_PRIMASK_NS(void)
 398:C:/Users/Public/OptiSort/OptiSort/Microcontroller/Libraries/CMSIS/Include\cmsis_gcc.h **** {
 399:C:/Users/Public/OptiSort/OptiSort/Microcontroller/Libraries/CMSIS/Include\cmsis_gcc.h ****   uint32_t result;
 400:C:/Users/Public/OptiSort/OptiSort/Microcontroller/Libraries/CMSIS/Include\cmsis_gcc.h **** 
 401:C:/Users/Public/OptiSort/OptiSort/Microcontroller/Libraries/CMSIS/Include\cmsis_gcc.h ****   __ASM volatile ("MRS %0, primask_ns" : "=r" (result) :: "memory");
 402:C:/Users/Public/OptiSort/OptiSort/Microcontroller/Libraries/CMSIS/Include\cmsis_gcc.h ****   return(result);
 403:C:/Users/Public/OptiSort/OptiSort/Microcontroller/Libraries/CMSIS/Include\cmsis_gcc.h **** }
 404:C:/Users/Public/OptiSort/OptiSort/Microcontroller/Libraries/CMSIS/Include\cmsis_gcc.h **** #endif
 405:C:/Users/Public/OptiSort/OptiSort/Microcontroller/Libraries/CMSIS/Include\cmsis_gcc.h **** 
 406:C:/Users/Public/OptiSort/OptiSort/Microcontroller/Libraries/CMSIS/Include\cmsis_gcc.h **** 
 407:C:/Users/Public/OptiSort/OptiSort/Microcontroller/Libraries/CMSIS/Include\cmsis_gcc.h **** /**
 408:C:/Users/Public/OptiSort/OptiSort/Microcontroller/Libraries/CMSIS/Include\cmsis_gcc.h ****   \brief   Set Priority Mask
 409:C:/Users/Public/OptiSort/OptiSort/Microcontroller/Libraries/CMSIS/Include\cmsis_gcc.h ****   \details Assigns the given value to the Priority Mask Register.
 410:C:/Users/Public/OptiSort/OptiSort/Microcontroller/Libraries/CMSIS/Include\cmsis_gcc.h ****   \param [in]    priMask  Priority Mask
 411:C:/Users/Public/OptiSort/OptiSort/Microcontroller/Libraries/CMSIS/Include\cmsis_gcc.h ****  */
 412:C:/Users/Public/OptiSort/OptiSort/Microcontroller/Libraries/CMSIS/Include\cmsis_gcc.h **** __STATIC_FORCEINLINE void __set_PRIMASK(uint32_t priMask)
 413:C:/Users/Public/OptiSort/OptiSort/Microcontroller/Libraries/CMSIS/Include\cmsis_gcc.h **** {
 414:C:/Users/Public/OptiSort/OptiSort/Microcontroller/Libraries/CMSIS/Include\cmsis_gcc.h ****   __ASM volatile ("MSR primask, %0" : : "r" (priMask) : "memory");
 415:C:/Users/Public/OptiSort/OptiSort/Microcontroller/Libraries/CMSIS/Include\cmsis_gcc.h **** }
 416:C:/Users/Public/OptiSort/OptiSort/Microcontroller/Libraries/CMSIS/Include\cmsis_gcc.h **** 
 417:C:/Users/Public/OptiSort/OptiSort/Microcontroller/Libraries/CMSIS/Include\cmsis_gcc.h **** 
 418:C:/Users/Public/OptiSort/OptiSort/Microcontroller/Libraries/CMSIS/Include\cmsis_gcc.h **** #if (defined (__ARM_FEATURE_CMSE ) && (__ARM_FEATURE_CMSE == 3))
 419:C:/Users/Public/OptiSort/OptiSort/Microcontroller/Libraries/CMSIS/Include\cmsis_gcc.h **** /**
 420:C:/Users/Public/OptiSort/OptiSort/Microcontroller/Libraries/CMSIS/Include\cmsis_gcc.h ****   \brief   Set Priority Mask (non-secure)
 421:C:/Users/Public/OptiSort/OptiSort/Microcontroller/Libraries/CMSIS/Include\cmsis_gcc.h ****   \details Assigns the given value to the non-secure Priority Mask Register when in secure state.
 422:C:/Users/Public/OptiSort/OptiSort/Microcontroller/Libraries/CMSIS/Include\cmsis_gcc.h ****   \param [in]    priMask  Priority Mask
 423:C:/Users/Public/OptiSort/OptiSort/Microcontroller/Libraries/CMSIS/Include\cmsis_gcc.h ****  */
 424:C:/Users/Public/OptiSort/OptiSort/Microcontroller/Libraries/CMSIS/Include\cmsis_gcc.h **** __STATIC_FORCEINLINE void __TZ_set_PRIMASK_NS(uint32_t priMask)
 425:C:/Users/Public/OptiSort/OptiSort/Microcontroller/Libraries/CMSIS/Include\cmsis_gcc.h **** {
 426:C:/Users/Public/OptiSort/OptiSort/Microcontroller/Libraries/CMSIS/Include\cmsis_gcc.h ****   __ASM volatile ("MSR primask_ns, %0" : : "r" (priMask) : "memory");
 427:C:/Users/Public/OptiSort/OptiSort/Microcontroller/Libraries/CMSIS/Include\cmsis_gcc.h **** }
 428:C:/Users/Public/OptiSort/OptiSort/Microcontroller/Libraries/CMSIS/Include\cmsis_gcc.h **** #endif
 429:C:/Users/Public/OptiSort/OptiSort/Microcontroller/Libraries/CMSIS/Include\cmsis_gcc.h **** 
 430:C:/Users/Public/OptiSort/OptiSort/Microcontroller/Libraries/CMSIS/Include\cmsis_gcc.h **** 
 431:C:/Users/Public/OptiSort/OptiSort/Microcontroller/Libraries/CMSIS/Include\cmsis_gcc.h **** #if ((defined (__ARM_ARCH_7M__      ) && (__ARM_ARCH_7M__      == 1)) || \
 432:C:/Users/Public/OptiSort/OptiSort/Microcontroller/Libraries/CMSIS/Include\cmsis_gcc.h ****      (defined (__ARM_ARCH_7EM__     ) && (__ARM_ARCH_7EM__     == 1)) || \
 433:C:/Users/Public/OptiSort/OptiSort/Microcontroller/Libraries/CMSIS/Include\cmsis_gcc.h ****      (defined (__ARM_ARCH_8M_MAIN__ ) && (__ARM_ARCH_8M_MAIN__ == 1))    )
 434:C:/Users/Public/OptiSort/OptiSort/Microcontroller/Libraries/CMSIS/Include\cmsis_gcc.h **** /**
 435:C:/Users/Public/OptiSort/OptiSort/Microcontroller/Libraries/CMSIS/Include\cmsis_gcc.h ****   \brief   Enable FIQ
 436:C:/Users/Public/OptiSort/OptiSort/Microcontroller/Libraries/CMSIS/Include\cmsis_gcc.h ****   \details Enables FIQ interrupts by clearing the F-bit in the CPSR.
 437:C:/Users/Public/OptiSort/OptiSort/Microcontroller/Libraries/CMSIS/Include\cmsis_gcc.h ****            Can only be executed in Privileged modes.
 438:C:/Users/Public/OptiSort/OptiSort/Microcontroller/Libraries/CMSIS/Include\cmsis_gcc.h ****  */
 439:C:/Users/Public/OptiSort/OptiSort/Microcontroller/Libraries/CMSIS/Include\cmsis_gcc.h **** __STATIC_FORCEINLINE void __enable_fault_irq(void)
 440:C:/Users/Public/OptiSort/OptiSort/Microcontroller/Libraries/CMSIS/Include\cmsis_gcc.h **** {
 441:C:/Users/Public/OptiSort/OptiSort/Microcontroller/Libraries/CMSIS/Include\cmsis_gcc.h ****   __ASM volatile ("cpsie f" : : : "memory");
 442:C:/Users/Public/OptiSort/OptiSort/Microcontroller/Libraries/CMSIS/Include\cmsis_gcc.h **** }
 443:C:/Users/Public/OptiSort/OptiSort/Microcontroller/Libraries/CMSIS/Include\cmsis_gcc.h **** 
 444:C:/Users/Public/OptiSort/OptiSort/Microcontroller/Libraries/CMSIS/Include\cmsis_gcc.h **** 
 445:C:/Users/Public/OptiSort/OptiSort/Microcontroller/Libraries/CMSIS/Include\cmsis_gcc.h **** /**
 446:C:/Users/Public/OptiSort/OptiSort/Microcontroller/Libraries/CMSIS/Include\cmsis_gcc.h ****   \brief   Disable FIQ
 447:C:/Users/Public/OptiSort/OptiSort/Microcontroller/Libraries/CMSIS/Include\cmsis_gcc.h ****   \details Disables FIQ interrupts by setting the F-bit in the CPSR.
 448:C:/Users/Public/OptiSort/OptiSort/Microcontroller/Libraries/CMSIS/Include\cmsis_gcc.h ****            Can only be executed in Privileged modes.
 449:C:/Users/Public/OptiSort/OptiSort/Microcontroller/Libraries/CMSIS/Include\cmsis_gcc.h ****  */
 450:C:/Users/Public/OptiSort/OptiSort/Microcontroller/Libraries/CMSIS/Include\cmsis_gcc.h **** __STATIC_FORCEINLINE void __disable_fault_irq(void)
 451:C:/Users/Public/OptiSort/OptiSort/Microcontroller/Libraries/CMSIS/Include\cmsis_gcc.h **** {
 452:C:/Users/Public/OptiSort/OptiSort/Microcontroller/Libraries/CMSIS/Include\cmsis_gcc.h ****   __ASM volatile ("cpsid f" : : : "memory");
 453:C:/Users/Public/OptiSort/OptiSort/Microcontroller/Libraries/CMSIS/Include\cmsis_gcc.h **** }
 454:C:/Users/Public/OptiSort/OptiSort/Microcontroller/Libraries/CMSIS/Include\cmsis_gcc.h **** 
 455:C:/Users/Public/OptiSort/OptiSort/Microcontroller/Libraries/CMSIS/Include\cmsis_gcc.h **** 
 456:C:/Users/Public/OptiSort/OptiSort/Microcontroller/Libraries/CMSIS/Include\cmsis_gcc.h **** /**
 457:C:/Users/Public/OptiSort/OptiSort/Microcontroller/Libraries/CMSIS/Include\cmsis_gcc.h ****   \brief   Get Base Priority
 458:C:/Users/Public/OptiSort/OptiSort/Microcontroller/Libraries/CMSIS/Include\cmsis_gcc.h ****   \details Returns the current value of the Base Priority register.
 459:C:/Users/Public/OptiSort/OptiSort/Microcontroller/Libraries/CMSIS/Include\cmsis_gcc.h ****   \return               Base Priority register value
 460:C:/Users/Public/OptiSort/OptiSort/Microcontroller/Libraries/CMSIS/Include\cmsis_gcc.h ****  */
 461:C:/Users/Public/OptiSort/OptiSort/Microcontroller/Libraries/CMSIS/Include\cmsis_gcc.h **** __STATIC_FORCEINLINE uint32_t __get_BASEPRI(void)
 462:C:/Users/Public/OptiSort/OptiSort/Microcontroller/Libraries/CMSIS/Include\cmsis_gcc.h **** {
 463:C:/Users/Public/OptiSort/OptiSort/Microcontroller/Libraries/CMSIS/Include\cmsis_gcc.h ****   uint32_t result;
 464:C:/Users/Public/OptiSort/OptiSort/Microcontroller/Libraries/CMSIS/Include\cmsis_gcc.h **** 
 465:C:/Users/Public/OptiSort/OptiSort/Microcontroller/Libraries/CMSIS/Include\cmsis_gcc.h ****   __ASM volatile ("MRS %0, basepri" : "=r" (result) );
 466:C:/Users/Public/OptiSort/OptiSort/Microcontroller/Libraries/CMSIS/Include\cmsis_gcc.h ****   return(result);
 467:C:/Users/Public/OptiSort/OptiSort/Microcontroller/Libraries/CMSIS/Include\cmsis_gcc.h **** }
 468:C:/Users/Public/OptiSort/OptiSort/Microcontroller/Libraries/CMSIS/Include\cmsis_gcc.h **** 
 469:C:/Users/Public/OptiSort/OptiSort/Microcontroller/Libraries/CMSIS/Include\cmsis_gcc.h **** 
 470:C:/Users/Public/OptiSort/OptiSort/Microcontroller/Libraries/CMSIS/Include\cmsis_gcc.h **** #if (defined (__ARM_FEATURE_CMSE ) && (__ARM_FEATURE_CMSE == 3))
 471:C:/Users/Public/OptiSort/OptiSort/Microcontroller/Libraries/CMSIS/Include\cmsis_gcc.h **** /**
 472:C:/Users/Public/OptiSort/OptiSort/Microcontroller/Libraries/CMSIS/Include\cmsis_gcc.h ****   \brief   Get Base Priority (non-secure)
 473:C:/Users/Public/OptiSort/OptiSort/Microcontroller/Libraries/CMSIS/Include\cmsis_gcc.h ****   \details Returns the current value of the non-secure Base Priority register when in secure state.
 474:C:/Users/Public/OptiSort/OptiSort/Microcontroller/Libraries/CMSIS/Include\cmsis_gcc.h ****   \return               Base Priority register value
 475:C:/Users/Public/OptiSort/OptiSort/Microcontroller/Libraries/CMSIS/Include\cmsis_gcc.h ****  */
 476:C:/Users/Public/OptiSort/OptiSort/Microcontroller/Libraries/CMSIS/Include\cmsis_gcc.h **** __STATIC_FORCEINLINE uint32_t __TZ_get_BASEPRI_NS(void)
 477:C:/Users/Public/OptiSort/OptiSort/Microcontroller/Libraries/CMSIS/Include\cmsis_gcc.h **** {
 478:C:/Users/Public/OptiSort/OptiSort/Microcontroller/Libraries/CMSIS/Include\cmsis_gcc.h ****   uint32_t result;
 479:C:/Users/Public/OptiSort/OptiSort/Microcontroller/Libraries/CMSIS/Include\cmsis_gcc.h **** 
 480:C:/Users/Public/OptiSort/OptiSort/Microcontroller/Libraries/CMSIS/Include\cmsis_gcc.h ****   __ASM volatile ("MRS %0, basepri_ns" : "=r" (result) );
 481:C:/Users/Public/OptiSort/OptiSort/Microcontroller/Libraries/CMSIS/Include\cmsis_gcc.h ****   return(result);
 482:C:/Users/Public/OptiSort/OptiSort/Microcontroller/Libraries/CMSIS/Include\cmsis_gcc.h **** }
 483:C:/Users/Public/OptiSort/OptiSort/Microcontroller/Libraries/CMSIS/Include\cmsis_gcc.h **** #endif
 484:C:/Users/Public/OptiSort/OptiSort/Microcontroller/Libraries/CMSIS/Include\cmsis_gcc.h **** 
 485:C:/Users/Public/OptiSort/OptiSort/Microcontroller/Libraries/CMSIS/Include\cmsis_gcc.h **** 
 486:C:/Users/Public/OptiSort/OptiSort/Microcontroller/Libraries/CMSIS/Include\cmsis_gcc.h **** /**
 487:C:/Users/Public/OptiSort/OptiSort/Microcontroller/Libraries/CMSIS/Include\cmsis_gcc.h ****   \brief   Set Base Priority
 488:C:/Users/Public/OptiSort/OptiSort/Microcontroller/Libraries/CMSIS/Include\cmsis_gcc.h ****   \details Assigns the given value to the Base Priority register.
 489:C:/Users/Public/OptiSort/OptiSort/Microcontroller/Libraries/CMSIS/Include\cmsis_gcc.h ****   \param [in]    basePri  Base Priority value to set
 490:C:/Users/Public/OptiSort/OptiSort/Microcontroller/Libraries/CMSIS/Include\cmsis_gcc.h ****  */
 491:C:/Users/Public/OptiSort/OptiSort/Microcontroller/Libraries/CMSIS/Include\cmsis_gcc.h **** __STATIC_FORCEINLINE void __set_BASEPRI(uint32_t basePri)
 492:C:/Users/Public/OptiSort/OptiSort/Microcontroller/Libraries/CMSIS/Include\cmsis_gcc.h **** {
 493:C:/Users/Public/OptiSort/OptiSort/Microcontroller/Libraries/CMSIS/Include\cmsis_gcc.h ****   __ASM volatile ("MSR basepri, %0" : : "r" (basePri) : "memory");
 494:C:/Users/Public/OptiSort/OptiSort/Microcontroller/Libraries/CMSIS/Include\cmsis_gcc.h **** }
 495:C:/Users/Public/OptiSort/OptiSort/Microcontroller/Libraries/CMSIS/Include\cmsis_gcc.h **** 
 496:C:/Users/Public/OptiSort/OptiSort/Microcontroller/Libraries/CMSIS/Include\cmsis_gcc.h **** 
 497:C:/Users/Public/OptiSort/OptiSort/Microcontroller/Libraries/CMSIS/Include\cmsis_gcc.h **** #if (defined (__ARM_FEATURE_CMSE ) && (__ARM_FEATURE_CMSE == 3))
 498:C:/Users/Public/OptiSort/OptiSort/Microcontroller/Libraries/CMSIS/Include\cmsis_gcc.h **** /**
 499:C:/Users/Public/OptiSort/OptiSort/Microcontroller/Libraries/CMSIS/Include\cmsis_gcc.h ****   \brief   Set Base Priority (non-secure)
 500:C:/Users/Public/OptiSort/OptiSort/Microcontroller/Libraries/CMSIS/Include\cmsis_gcc.h ****   \details Assigns the given value to the non-secure Base Priority register when in secure state.
 501:C:/Users/Public/OptiSort/OptiSort/Microcontroller/Libraries/CMSIS/Include\cmsis_gcc.h ****   \param [in]    basePri  Base Priority value to set
 502:C:/Users/Public/OptiSort/OptiSort/Microcontroller/Libraries/CMSIS/Include\cmsis_gcc.h ****  */
 503:C:/Users/Public/OptiSort/OptiSort/Microcontroller/Libraries/CMSIS/Include\cmsis_gcc.h **** __STATIC_FORCEINLINE void __TZ_set_BASEPRI_NS(uint32_t basePri)
 504:C:/Users/Public/OptiSort/OptiSort/Microcontroller/Libraries/CMSIS/Include\cmsis_gcc.h **** {
 505:C:/Users/Public/OptiSort/OptiSort/Microcontroller/Libraries/CMSIS/Include\cmsis_gcc.h ****   __ASM volatile ("MSR basepri_ns, %0" : : "r" (basePri) : "memory");
 506:C:/Users/Public/OptiSort/OptiSort/Microcontroller/Libraries/CMSIS/Include\cmsis_gcc.h **** }
 507:C:/Users/Public/OptiSort/OptiSort/Microcontroller/Libraries/CMSIS/Include\cmsis_gcc.h **** #endif
 508:C:/Users/Public/OptiSort/OptiSort/Microcontroller/Libraries/CMSIS/Include\cmsis_gcc.h **** 
 509:C:/Users/Public/OptiSort/OptiSort/Microcontroller/Libraries/CMSIS/Include\cmsis_gcc.h **** 
 510:C:/Users/Public/OptiSort/OptiSort/Microcontroller/Libraries/CMSIS/Include\cmsis_gcc.h **** /**
 511:C:/Users/Public/OptiSort/OptiSort/Microcontroller/Libraries/CMSIS/Include\cmsis_gcc.h ****   \brief   Set Base Priority with condition
 512:C:/Users/Public/OptiSort/OptiSort/Microcontroller/Libraries/CMSIS/Include\cmsis_gcc.h ****   \details Assigns the given value to the Base Priority register only if BASEPRI masking is disable
 513:C:/Users/Public/OptiSort/OptiSort/Microcontroller/Libraries/CMSIS/Include\cmsis_gcc.h ****            or the new value increases the BASEPRI priority level.
 514:C:/Users/Public/OptiSort/OptiSort/Microcontroller/Libraries/CMSIS/Include\cmsis_gcc.h ****   \param [in]    basePri  Base Priority value to set
 515:C:/Users/Public/OptiSort/OptiSort/Microcontroller/Libraries/CMSIS/Include\cmsis_gcc.h ****  */
 516:C:/Users/Public/OptiSort/OptiSort/Microcontroller/Libraries/CMSIS/Include\cmsis_gcc.h **** __STATIC_FORCEINLINE void __set_BASEPRI_MAX(uint32_t basePri)
 517:C:/Users/Public/OptiSort/OptiSort/Microcontroller/Libraries/CMSIS/Include\cmsis_gcc.h **** {
 518:C:/Users/Public/OptiSort/OptiSort/Microcontroller/Libraries/CMSIS/Include\cmsis_gcc.h ****   __ASM volatile ("MSR basepri_max, %0" : : "r" (basePri) : "memory");
 519:C:/Users/Public/OptiSort/OptiSort/Microcontroller/Libraries/CMSIS/Include\cmsis_gcc.h **** }
 520:C:/Users/Public/OptiSort/OptiSort/Microcontroller/Libraries/CMSIS/Include\cmsis_gcc.h **** 
 521:C:/Users/Public/OptiSort/OptiSort/Microcontroller/Libraries/CMSIS/Include\cmsis_gcc.h **** 
 522:C:/Users/Public/OptiSort/OptiSort/Microcontroller/Libraries/CMSIS/Include\cmsis_gcc.h **** /**
 523:C:/Users/Public/OptiSort/OptiSort/Microcontroller/Libraries/CMSIS/Include\cmsis_gcc.h ****   \brief   Get Fault Mask
 524:C:/Users/Public/OptiSort/OptiSort/Microcontroller/Libraries/CMSIS/Include\cmsis_gcc.h ****   \details Returns the current value of the Fault Mask register.
 525:C:/Users/Public/OptiSort/OptiSort/Microcontroller/Libraries/CMSIS/Include\cmsis_gcc.h ****   \return               Fault Mask register value
 526:C:/Users/Public/OptiSort/OptiSort/Microcontroller/Libraries/CMSIS/Include\cmsis_gcc.h ****  */
 527:C:/Users/Public/OptiSort/OptiSort/Microcontroller/Libraries/CMSIS/Include\cmsis_gcc.h **** __STATIC_FORCEINLINE uint32_t __get_FAULTMASK(void)
 528:C:/Users/Public/OptiSort/OptiSort/Microcontroller/Libraries/CMSIS/Include\cmsis_gcc.h **** {
 529:C:/Users/Public/OptiSort/OptiSort/Microcontroller/Libraries/CMSIS/Include\cmsis_gcc.h ****   uint32_t result;
 530:C:/Users/Public/OptiSort/OptiSort/Microcontroller/Libraries/CMSIS/Include\cmsis_gcc.h **** 
 531:C:/Users/Public/OptiSort/OptiSort/Microcontroller/Libraries/CMSIS/Include\cmsis_gcc.h ****   __ASM volatile ("MRS %0, faultmask" : "=r" (result) );
 532:C:/Users/Public/OptiSort/OptiSort/Microcontroller/Libraries/CMSIS/Include\cmsis_gcc.h ****   return(result);
 533:C:/Users/Public/OptiSort/OptiSort/Microcontroller/Libraries/CMSIS/Include\cmsis_gcc.h **** }
 534:C:/Users/Public/OptiSort/OptiSort/Microcontroller/Libraries/CMSIS/Include\cmsis_gcc.h **** 
 535:C:/Users/Public/OptiSort/OptiSort/Microcontroller/Libraries/CMSIS/Include\cmsis_gcc.h **** 
 536:C:/Users/Public/OptiSort/OptiSort/Microcontroller/Libraries/CMSIS/Include\cmsis_gcc.h **** #if (defined (__ARM_FEATURE_CMSE ) && (__ARM_FEATURE_CMSE == 3))
 537:C:/Users/Public/OptiSort/OptiSort/Microcontroller/Libraries/CMSIS/Include\cmsis_gcc.h **** /**
 538:C:/Users/Public/OptiSort/OptiSort/Microcontroller/Libraries/CMSIS/Include\cmsis_gcc.h ****   \brief   Get Fault Mask (non-secure)
 539:C:/Users/Public/OptiSort/OptiSort/Microcontroller/Libraries/CMSIS/Include\cmsis_gcc.h ****   \details Returns the current value of the non-secure Fault Mask register when in secure state.
 540:C:/Users/Public/OptiSort/OptiSort/Microcontroller/Libraries/CMSIS/Include\cmsis_gcc.h ****   \return               Fault Mask register value
 541:C:/Users/Public/OptiSort/OptiSort/Microcontroller/Libraries/CMSIS/Include\cmsis_gcc.h ****  */
 542:C:/Users/Public/OptiSort/OptiSort/Microcontroller/Libraries/CMSIS/Include\cmsis_gcc.h **** __STATIC_FORCEINLINE uint32_t __TZ_get_FAULTMASK_NS(void)
 543:C:/Users/Public/OptiSort/OptiSort/Microcontroller/Libraries/CMSIS/Include\cmsis_gcc.h **** {
 544:C:/Users/Public/OptiSort/OptiSort/Microcontroller/Libraries/CMSIS/Include\cmsis_gcc.h ****   uint32_t result;
 545:C:/Users/Public/OptiSort/OptiSort/Microcontroller/Libraries/CMSIS/Include\cmsis_gcc.h **** 
 546:C:/Users/Public/OptiSort/OptiSort/Microcontroller/Libraries/CMSIS/Include\cmsis_gcc.h ****   __ASM volatile ("MRS %0, faultmask_ns" : "=r" (result) );
 547:C:/Users/Public/OptiSort/OptiSort/Microcontroller/Libraries/CMSIS/Include\cmsis_gcc.h ****   return(result);
 548:C:/Users/Public/OptiSort/OptiSort/Microcontroller/Libraries/CMSIS/Include\cmsis_gcc.h **** }
 549:C:/Users/Public/OptiSort/OptiSort/Microcontroller/Libraries/CMSIS/Include\cmsis_gcc.h **** #endif
 550:C:/Users/Public/OptiSort/OptiSort/Microcontroller/Libraries/CMSIS/Include\cmsis_gcc.h **** 
 551:C:/Users/Public/OptiSort/OptiSort/Microcontroller/Libraries/CMSIS/Include\cmsis_gcc.h **** 
 552:C:/Users/Public/OptiSort/OptiSort/Microcontroller/Libraries/CMSIS/Include\cmsis_gcc.h **** /**
 553:C:/Users/Public/OptiSort/OptiSort/Microcontroller/Libraries/CMSIS/Include\cmsis_gcc.h ****   \brief   Set Fault Mask
 554:C:/Users/Public/OptiSort/OptiSort/Microcontroller/Libraries/CMSIS/Include\cmsis_gcc.h ****   \details Assigns the given value to the Fault Mask register.
 555:C:/Users/Public/OptiSort/OptiSort/Microcontroller/Libraries/CMSIS/Include\cmsis_gcc.h ****   \param [in]    faultMask  Fault Mask value to set
 556:C:/Users/Public/OptiSort/OptiSort/Microcontroller/Libraries/CMSIS/Include\cmsis_gcc.h ****  */
 557:C:/Users/Public/OptiSort/OptiSort/Microcontroller/Libraries/CMSIS/Include\cmsis_gcc.h **** __STATIC_FORCEINLINE void __set_FAULTMASK(uint32_t faultMask)
 558:C:/Users/Public/OptiSort/OptiSort/Microcontroller/Libraries/CMSIS/Include\cmsis_gcc.h **** {
 559:C:/Users/Public/OptiSort/OptiSort/Microcontroller/Libraries/CMSIS/Include\cmsis_gcc.h ****   __ASM volatile ("MSR faultmask, %0" : : "r" (faultMask) : "memory");
 560:C:/Users/Public/OptiSort/OptiSort/Microcontroller/Libraries/CMSIS/Include\cmsis_gcc.h **** }
 561:C:/Users/Public/OptiSort/OptiSort/Microcontroller/Libraries/CMSIS/Include\cmsis_gcc.h **** 
 562:C:/Users/Public/OptiSort/OptiSort/Microcontroller/Libraries/CMSIS/Include\cmsis_gcc.h **** 
 563:C:/Users/Public/OptiSort/OptiSort/Microcontroller/Libraries/CMSIS/Include\cmsis_gcc.h **** #if (defined (__ARM_FEATURE_CMSE ) && (__ARM_FEATURE_CMSE == 3))
 564:C:/Users/Public/OptiSort/OptiSort/Microcontroller/Libraries/CMSIS/Include\cmsis_gcc.h **** /**
 565:C:/Users/Public/OptiSort/OptiSort/Microcontroller/Libraries/CMSIS/Include\cmsis_gcc.h ****   \brief   Set Fault Mask (non-secure)
 566:C:/Users/Public/OptiSort/OptiSort/Microcontroller/Libraries/CMSIS/Include\cmsis_gcc.h ****   \details Assigns the given value to the non-secure Fault Mask register when in secure state.
 567:C:/Users/Public/OptiSort/OptiSort/Microcontroller/Libraries/CMSIS/Include\cmsis_gcc.h ****   \param [in]    faultMask  Fault Mask value to set
 568:C:/Users/Public/OptiSort/OptiSort/Microcontroller/Libraries/CMSIS/Include\cmsis_gcc.h ****  */
 569:C:/Users/Public/OptiSort/OptiSort/Microcontroller/Libraries/CMSIS/Include\cmsis_gcc.h **** __STATIC_FORCEINLINE void __TZ_set_FAULTMASK_NS(uint32_t faultMask)
 570:C:/Users/Public/OptiSort/OptiSort/Microcontroller/Libraries/CMSIS/Include\cmsis_gcc.h **** {
 571:C:/Users/Public/OptiSort/OptiSort/Microcontroller/Libraries/CMSIS/Include\cmsis_gcc.h ****   __ASM volatile ("MSR faultmask_ns, %0" : : "r" (faultMask) : "memory");
 572:C:/Users/Public/OptiSort/OptiSort/Microcontroller/Libraries/CMSIS/Include\cmsis_gcc.h **** }
 573:C:/Users/Public/OptiSort/OptiSort/Microcontroller/Libraries/CMSIS/Include\cmsis_gcc.h **** #endif
 574:C:/Users/Public/OptiSort/OptiSort/Microcontroller/Libraries/CMSIS/Include\cmsis_gcc.h **** 
 575:C:/Users/Public/OptiSort/OptiSort/Microcontroller/Libraries/CMSIS/Include\cmsis_gcc.h **** #endif /* ((defined (__ARM_ARCH_7M__      ) && (__ARM_ARCH_7M__      == 1)) || \
 576:C:/Users/Public/OptiSort/OptiSort/Microcontroller/Libraries/CMSIS/Include\cmsis_gcc.h ****            (defined (__ARM_ARCH_7EM__     ) && (__ARM_ARCH_7EM__     == 1)) || \
 577:C:/Users/Public/OptiSort/OptiSort/Microcontroller/Libraries/CMSIS/Include\cmsis_gcc.h ****            (defined (__ARM_ARCH_8M_MAIN__ ) && (__ARM_ARCH_8M_MAIN__ == 1))    ) */
 578:C:/Users/Public/OptiSort/OptiSort/Microcontroller/Libraries/CMSIS/Include\cmsis_gcc.h **** 
 579:C:/Users/Public/OptiSort/OptiSort/Microcontroller/Libraries/CMSIS/Include\cmsis_gcc.h **** 
 580:C:/Users/Public/OptiSort/OptiSort/Microcontroller/Libraries/CMSIS/Include\cmsis_gcc.h **** #if ((defined (__ARM_ARCH_8M_MAIN__ ) && (__ARM_ARCH_8M_MAIN__ == 1)) || \
 581:C:/Users/Public/OptiSort/OptiSort/Microcontroller/Libraries/CMSIS/Include\cmsis_gcc.h ****      (defined (__ARM_ARCH_8M_BASE__ ) && (__ARM_ARCH_8M_BASE__ == 1))    )
 582:C:/Users/Public/OptiSort/OptiSort/Microcontroller/Libraries/CMSIS/Include\cmsis_gcc.h **** 
 583:C:/Users/Public/OptiSort/OptiSort/Microcontroller/Libraries/CMSIS/Include\cmsis_gcc.h **** /**
 584:C:/Users/Public/OptiSort/OptiSort/Microcontroller/Libraries/CMSIS/Include\cmsis_gcc.h ****   \brief   Get Process Stack Pointer Limit
 585:C:/Users/Public/OptiSort/OptiSort/Microcontroller/Libraries/CMSIS/Include\cmsis_gcc.h ****   \details Returns the current value of the Process Stack Pointer Limit (PSPLIM).
 586:C:/Users/Public/OptiSort/OptiSort/Microcontroller/Libraries/CMSIS/Include\cmsis_gcc.h ****   \return               PSPLIM Register value
 587:C:/Users/Public/OptiSort/OptiSort/Microcontroller/Libraries/CMSIS/Include\cmsis_gcc.h ****  */
 588:C:/Users/Public/OptiSort/OptiSort/Microcontroller/Libraries/CMSIS/Include\cmsis_gcc.h **** __STATIC_FORCEINLINE uint32_t __get_PSPLIM(void)
 589:C:/Users/Public/OptiSort/OptiSort/Microcontroller/Libraries/CMSIS/Include\cmsis_gcc.h **** {
 590:C:/Users/Public/OptiSort/OptiSort/Microcontroller/Libraries/CMSIS/Include\cmsis_gcc.h ****   register uint32_t result;
 591:C:/Users/Public/OptiSort/OptiSort/Microcontroller/Libraries/CMSIS/Include\cmsis_gcc.h **** 
 592:C:/Users/Public/OptiSort/OptiSort/Microcontroller/Libraries/CMSIS/Include\cmsis_gcc.h ****   __ASM volatile ("MRS %0, psplim"  : "=r" (result) );
 593:C:/Users/Public/OptiSort/OptiSort/Microcontroller/Libraries/CMSIS/Include\cmsis_gcc.h ****   return(result);
 594:C:/Users/Public/OptiSort/OptiSort/Microcontroller/Libraries/CMSIS/Include\cmsis_gcc.h **** }
 595:C:/Users/Public/OptiSort/OptiSort/Microcontroller/Libraries/CMSIS/Include\cmsis_gcc.h **** 
 596:C:/Users/Public/OptiSort/OptiSort/Microcontroller/Libraries/CMSIS/Include\cmsis_gcc.h **** 
 597:C:/Users/Public/OptiSort/OptiSort/Microcontroller/Libraries/CMSIS/Include\cmsis_gcc.h **** #if ((defined (__ARM_FEATURE_CMSE  ) && (__ARM_FEATURE_CMSE   == 3)) && \
 598:C:/Users/Public/OptiSort/OptiSort/Microcontroller/Libraries/CMSIS/Include\cmsis_gcc.h ****      (defined (__ARM_ARCH_8M_MAIN__) && (__ARM_ARCH_8M_MAIN__ == 1))    )
 599:C:/Users/Public/OptiSort/OptiSort/Microcontroller/Libraries/CMSIS/Include\cmsis_gcc.h **** /**
 600:C:/Users/Public/OptiSort/OptiSort/Microcontroller/Libraries/CMSIS/Include\cmsis_gcc.h ****   \brief   Get Process Stack Pointer Limit (non-secure)
 601:C:/Users/Public/OptiSort/OptiSort/Microcontroller/Libraries/CMSIS/Include\cmsis_gcc.h ****   \details Returns the current value of the non-secure Process Stack Pointer Limit (PSPLIM) when in
 602:C:/Users/Public/OptiSort/OptiSort/Microcontroller/Libraries/CMSIS/Include\cmsis_gcc.h ****   \return               PSPLIM Register value
 603:C:/Users/Public/OptiSort/OptiSort/Microcontroller/Libraries/CMSIS/Include\cmsis_gcc.h ****  */
 604:C:/Users/Public/OptiSort/OptiSort/Microcontroller/Libraries/CMSIS/Include\cmsis_gcc.h **** __STATIC_FORCEINLINE uint32_t __TZ_get_PSPLIM_NS(void)
 605:C:/Users/Public/OptiSort/OptiSort/Microcontroller/Libraries/CMSIS/Include\cmsis_gcc.h **** {
 606:C:/Users/Public/OptiSort/OptiSort/Microcontroller/Libraries/CMSIS/Include\cmsis_gcc.h ****   register uint32_t result;
 607:C:/Users/Public/OptiSort/OptiSort/Microcontroller/Libraries/CMSIS/Include\cmsis_gcc.h **** 
 608:C:/Users/Public/OptiSort/OptiSort/Microcontroller/Libraries/CMSIS/Include\cmsis_gcc.h ****   __ASM volatile ("MRS %0, psplim_ns"  : "=r" (result) );
 609:C:/Users/Public/OptiSort/OptiSort/Microcontroller/Libraries/CMSIS/Include\cmsis_gcc.h ****   return(result);
 610:C:/Users/Public/OptiSort/OptiSort/Microcontroller/Libraries/CMSIS/Include\cmsis_gcc.h **** }
 611:C:/Users/Public/OptiSort/OptiSort/Microcontroller/Libraries/CMSIS/Include\cmsis_gcc.h **** #endif
 612:C:/Users/Public/OptiSort/OptiSort/Microcontroller/Libraries/CMSIS/Include\cmsis_gcc.h **** 
 613:C:/Users/Public/OptiSort/OptiSort/Microcontroller/Libraries/CMSIS/Include\cmsis_gcc.h **** 
 614:C:/Users/Public/OptiSort/OptiSort/Microcontroller/Libraries/CMSIS/Include\cmsis_gcc.h **** /**
 615:C:/Users/Public/OptiSort/OptiSort/Microcontroller/Libraries/CMSIS/Include\cmsis_gcc.h ****   \brief   Set Process Stack Pointer Limit
 616:C:/Users/Public/OptiSort/OptiSort/Microcontroller/Libraries/CMSIS/Include\cmsis_gcc.h ****   \details Assigns the given value to the Process Stack Pointer Limit (PSPLIM).
 617:C:/Users/Public/OptiSort/OptiSort/Microcontroller/Libraries/CMSIS/Include\cmsis_gcc.h ****   \param [in]    ProcStackPtrLimit  Process Stack Pointer Limit value to set
 618:C:/Users/Public/OptiSort/OptiSort/Microcontroller/Libraries/CMSIS/Include\cmsis_gcc.h ****  */
 619:C:/Users/Public/OptiSort/OptiSort/Microcontroller/Libraries/CMSIS/Include\cmsis_gcc.h **** __STATIC_FORCEINLINE void __set_PSPLIM(uint32_t ProcStackPtrLimit)
 620:C:/Users/Public/OptiSort/OptiSort/Microcontroller/Libraries/CMSIS/Include\cmsis_gcc.h **** {
 621:C:/Users/Public/OptiSort/OptiSort/Microcontroller/Libraries/CMSIS/Include\cmsis_gcc.h ****   __ASM volatile ("MSR psplim, %0" : : "r" (ProcStackPtrLimit));
 622:C:/Users/Public/OptiSort/OptiSort/Microcontroller/Libraries/CMSIS/Include\cmsis_gcc.h **** }
 623:C:/Users/Public/OptiSort/OptiSort/Microcontroller/Libraries/CMSIS/Include\cmsis_gcc.h **** 
 624:C:/Users/Public/OptiSort/OptiSort/Microcontroller/Libraries/CMSIS/Include\cmsis_gcc.h **** 
 625:C:/Users/Public/OptiSort/OptiSort/Microcontroller/Libraries/CMSIS/Include\cmsis_gcc.h **** #if ((defined (__ARM_FEATURE_CMSE  ) && (__ARM_FEATURE_CMSE   == 3)) && \
 626:C:/Users/Public/OptiSort/OptiSort/Microcontroller/Libraries/CMSIS/Include\cmsis_gcc.h ****      (defined (__ARM_ARCH_8M_MAIN__) && (__ARM_ARCH_8M_MAIN__ == 1))    )
 627:C:/Users/Public/OptiSort/OptiSort/Microcontroller/Libraries/CMSIS/Include\cmsis_gcc.h **** /**
 628:C:/Users/Public/OptiSort/OptiSort/Microcontroller/Libraries/CMSIS/Include\cmsis_gcc.h ****   \brief   Set Process Stack Pointer (non-secure)
 629:C:/Users/Public/OptiSort/OptiSort/Microcontroller/Libraries/CMSIS/Include\cmsis_gcc.h ****   \details Assigns the given value to the non-secure Process Stack Pointer Limit (PSPLIM) when in s
 630:C:/Users/Public/OptiSort/OptiSort/Microcontroller/Libraries/CMSIS/Include\cmsis_gcc.h ****   \param [in]    ProcStackPtrLimit  Process Stack Pointer Limit value to set
 631:C:/Users/Public/OptiSort/OptiSort/Microcontroller/Libraries/CMSIS/Include\cmsis_gcc.h ****  */
 632:C:/Users/Public/OptiSort/OptiSort/Microcontroller/Libraries/CMSIS/Include\cmsis_gcc.h **** __STATIC_FORCEINLINE void __TZ_set_PSPLIM_NS(uint32_t ProcStackPtrLimit)
 633:C:/Users/Public/OptiSort/OptiSort/Microcontroller/Libraries/CMSIS/Include\cmsis_gcc.h **** {
 634:C:/Users/Public/OptiSort/OptiSort/Microcontroller/Libraries/CMSIS/Include\cmsis_gcc.h ****   __ASM volatile ("MSR psplim_ns, %0\n" : : "r" (ProcStackPtrLimit));
 635:C:/Users/Public/OptiSort/OptiSort/Microcontroller/Libraries/CMSIS/Include\cmsis_gcc.h **** }
 636:C:/Users/Public/OptiSort/OptiSort/Microcontroller/Libraries/CMSIS/Include\cmsis_gcc.h **** #endif
 637:C:/Users/Public/OptiSort/OptiSort/Microcontroller/Libraries/CMSIS/Include\cmsis_gcc.h **** 
 638:C:/Users/Public/OptiSort/OptiSort/Microcontroller/Libraries/CMSIS/Include\cmsis_gcc.h **** 
 639:C:/Users/Public/OptiSort/OptiSort/Microcontroller/Libraries/CMSIS/Include\cmsis_gcc.h **** /**
 640:C:/Users/Public/OptiSort/OptiSort/Microcontroller/Libraries/CMSIS/Include\cmsis_gcc.h ****   \brief   Get Main Stack Pointer Limit
 641:C:/Users/Public/OptiSort/OptiSort/Microcontroller/Libraries/CMSIS/Include\cmsis_gcc.h ****   \details Returns the current value of the Main Stack Pointer Limit (MSPLIM).
 642:C:/Users/Public/OptiSort/OptiSort/Microcontroller/Libraries/CMSIS/Include\cmsis_gcc.h ****   \return               MSPLIM Register value
 643:C:/Users/Public/OptiSort/OptiSort/Microcontroller/Libraries/CMSIS/Include\cmsis_gcc.h ****  */
 644:C:/Users/Public/OptiSort/OptiSort/Microcontroller/Libraries/CMSIS/Include\cmsis_gcc.h **** __STATIC_FORCEINLINE uint32_t __get_MSPLIM(void)
 645:C:/Users/Public/OptiSort/OptiSort/Microcontroller/Libraries/CMSIS/Include\cmsis_gcc.h **** {
 646:C:/Users/Public/OptiSort/OptiSort/Microcontroller/Libraries/CMSIS/Include\cmsis_gcc.h ****   register uint32_t result;
 647:C:/Users/Public/OptiSort/OptiSort/Microcontroller/Libraries/CMSIS/Include\cmsis_gcc.h **** 
 648:C:/Users/Public/OptiSort/OptiSort/Microcontroller/Libraries/CMSIS/Include\cmsis_gcc.h ****   __ASM volatile ("MRS %0, msplim" : "=r" (result) );
 649:C:/Users/Public/OptiSort/OptiSort/Microcontroller/Libraries/CMSIS/Include\cmsis_gcc.h **** 
 650:C:/Users/Public/OptiSort/OptiSort/Microcontroller/Libraries/CMSIS/Include\cmsis_gcc.h ****   return(result);
 651:C:/Users/Public/OptiSort/OptiSort/Microcontroller/Libraries/CMSIS/Include\cmsis_gcc.h **** }
 652:C:/Users/Public/OptiSort/OptiSort/Microcontroller/Libraries/CMSIS/Include\cmsis_gcc.h **** 
 653:C:/Users/Public/OptiSort/OptiSort/Microcontroller/Libraries/CMSIS/Include\cmsis_gcc.h **** 
 654:C:/Users/Public/OptiSort/OptiSort/Microcontroller/Libraries/CMSIS/Include\cmsis_gcc.h **** #if ((defined (__ARM_FEATURE_CMSE  ) && (__ARM_FEATURE_CMSE   == 3)) && \
 655:C:/Users/Public/OptiSort/OptiSort/Microcontroller/Libraries/CMSIS/Include\cmsis_gcc.h ****      (defined (__ARM_ARCH_8M_MAIN__) && (__ARM_ARCH_8M_MAIN__ == 1))    )
 656:C:/Users/Public/OptiSort/OptiSort/Microcontroller/Libraries/CMSIS/Include\cmsis_gcc.h **** /**
 657:C:/Users/Public/OptiSort/OptiSort/Microcontroller/Libraries/CMSIS/Include\cmsis_gcc.h ****   \brief   Get Main Stack Pointer Limit (non-secure)
 658:C:/Users/Public/OptiSort/OptiSort/Microcontroller/Libraries/CMSIS/Include\cmsis_gcc.h ****   \details Returns the current value of the non-secure Main Stack Pointer Limit(MSPLIM) when in sec
 659:C:/Users/Public/OptiSort/OptiSort/Microcontroller/Libraries/CMSIS/Include\cmsis_gcc.h ****   \return               MSPLIM Register value
 660:C:/Users/Public/OptiSort/OptiSort/Microcontroller/Libraries/CMSIS/Include\cmsis_gcc.h ****  */
 661:C:/Users/Public/OptiSort/OptiSort/Microcontroller/Libraries/CMSIS/Include\cmsis_gcc.h **** __STATIC_FORCEINLINE uint32_t __TZ_get_MSPLIM_NS(void)
 662:C:/Users/Public/OptiSort/OptiSort/Microcontroller/Libraries/CMSIS/Include\cmsis_gcc.h **** {
 663:C:/Users/Public/OptiSort/OptiSort/Microcontroller/Libraries/CMSIS/Include\cmsis_gcc.h ****   register uint32_t result;
 664:C:/Users/Public/OptiSort/OptiSort/Microcontroller/Libraries/CMSIS/Include\cmsis_gcc.h **** 
 665:C:/Users/Public/OptiSort/OptiSort/Microcontroller/Libraries/CMSIS/Include\cmsis_gcc.h ****   __ASM volatile ("MRS %0, msplim_ns" : "=r" (result) );
 666:C:/Users/Public/OptiSort/OptiSort/Microcontroller/Libraries/CMSIS/Include\cmsis_gcc.h ****   return(result);
 667:C:/Users/Public/OptiSort/OptiSort/Microcontroller/Libraries/CMSIS/Include\cmsis_gcc.h **** }
 668:C:/Users/Public/OptiSort/OptiSort/Microcontroller/Libraries/CMSIS/Include\cmsis_gcc.h **** #endif
 669:C:/Users/Public/OptiSort/OptiSort/Microcontroller/Libraries/CMSIS/Include\cmsis_gcc.h **** 
 670:C:/Users/Public/OptiSort/OptiSort/Microcontroller/Libraries/CMSIS/Include\cmsis_gcc.h **** 
 671:C:/Users/Public/OptiSort/OptiSort/Microcontroller/Libraries/CMSIS/Include\cmsis_gcc.h **** /**
 672:C:/Users/Public/OptiSort/OptiSort/Microcontroller/Libraries/CMSIS/Include\cmsis_gcc.h ****   \brief   Set Main Stack Pointer Limit
 673:C:/Users/Public/OptiSort/OptiSort/Microcontroller/Libraries/CMSIS/Include\cmsis_gcc.h ****   \details Assigns the given value to the Main Stack Pointer Limit (MSPLIM).
 674:C:/Users/Public/OptiSort/OptiSort/Microcontroller/Libraries/CMSIS/Include\cmsis_gcc.h ****   \param [in]    MainStackPtrLimit  Main Stack Pointer Limit value to set
 675:C:/Users/Public/OptiSort/OptiSort/Microcontroller/Libraries/CMSIS/Include\cmsis_gcc.h ****  */
 676:C:/Users/Public/OptiSort/OptiSort/Microcontroller/Libraries/CMSIS/Include\cmsis_gcc.h **** __STATIC_FORCEINLINE void __set_MSPLIM(uint32_t MainStackPtrLimit)
 677:C:/Users/Public/OptiSort/OptiSort/Microcontroller/Libraries/CMSIS/Include\cmsis_gcc.h **** {
 678:C:/Users/Public/OptiSort/OptiSort/Microcontroller/Libraries/CMSIS/Include\cmsis_gcc.h ****   __ASM volatile ("MSR msplim, %0" : : "r" (MainStackPtrLimit));
 679:C:/Users/Public/OptiSort/OptiSort/Microcontroller/Libraries/CMSIS/Include\cmsis_gcc.h **** }
 680:C:/Users/Public/OptiSort/OptiSort/Microcontroller/Libraries/CMSIS/Include\cmsis_gcc.h **** 
 681:C:/Users/Public/OptiSort/OptiSort/Microcontroller/Libraries/CMSIS/Include\cmsis_gcc.h **** 
 682:C:/Users/Public/OptiSort/OptiSort/Microcontroller/Libraries/CMSIS/Include\cmsis_gcc.h **** #if ((defined (__ARM_FEATURE_CMSE  ) && (__ARM_FEATURE_CMSE   == 3)) && \
 683:C:/Users/Public/OptiSort/OptiSort/Microcontroller/Libraries/CMSIS/Include\cmsis_gcc.h ****      (defined (__ARM_ARCH_8M_MAIN__) && (__ARM_ARCH_8M_MAIN__ == 1))    )
 684:C:/Users/Public/OptiSort/OptiSort/Microcontroller/Libraries/CMSIS/Include\cmsis_gcc.h **** /**
 685:C:/Users/Public/OptiSort/OptiSort/Microcontroller/Libraries/CMSIS/Include\cmsis_gcc.h ****   \brief   Set Main Stack Pointer Limit (non-secure)
 686:C:/Users/Public/OptiSort/OptiSort/Microcontroller/Libraries/CMSIS/Include\cmsis_gcc.h ****   \details Assigns the given value to the non-secure Main Stack Pointer Limit (MSPLIM) when in secu
 687:C:/Users/Public/OptiSort/OptiSort/Microcontroller/Libraries/CMSIS/Include\cmsis_gcc.h ****   \param [in]    MainStackPtrLimit  Main Stack Pointer value to set
 688:C:/Users/Public/OptiSort/OptiSort/Microcontroller/Libraries/CMSIS/Include\cmsis_gcc.h ****  */
 689:C:/Users/Public/OptiSort/OptiSort/Microcontroller/Libraries/CMSIS/Include\cmsis_gcc.h **** __STATIC_FORCEINLINE void __TZ_set_MSPLIM_NS(uint32_t MainStackPtrLimit)
 690:C:/Users/Public/OptiSort/OptiSort/Microcontroller/Libraries/CMSIS/Include\cmsis_gcc.h **** {
 691:C:/Users/Public/OptiSort/OptiSort/Microcontroller/Libraries/CMSIS/Include\cmsis_gcc.h ****   __ASM volatile ("MSR msplim_ns, %0" : : "r" (MainStackPtrLimit));
 692:C:/Users/Public/OptiSort/OptiSort/Microcontroller/Libraries/CMSIS/Include\cmsis_gcc.h **** }
 693:C:/Users/Public/OptiSort/OptiSort/Microcontroller/Libraries/CMSIS/Include\cmsis_gcc.h **** #endif
 694:C:/Users/Public/OptiSort/OptiSort/Microcontroller/Libraries/CMSIS/Include\cmsis_gcc.h **** 
 695:C:/Users/Public/OptiSort/OptiSort/Microcontroller/Libraries/CMSIS/Include\cmsis_gcc.h **** #endif /* ((defined (__ARM_ARCH_8M_MAIN__ ) && (__ARM_ARCH_8M_MAIN__ == 1)) || \
 696:C:/Users/Public/OptiSort/OptiSort/Microcontroller/Libraries/CMSIS/Include\cmsis_gcc.h ****            (defined (__ARM_ARCH_8M_BASE__ ) && (__ARM_ARCH_8M_BASE__ == 1))    ) */
 697:C:/Users/Public/OptiSort/OptiSort/Microcontroller/Libraries/CMSIS/Include\cmsis_gcc.h **** 
 698:C:/Users/Public/OptiSort/OptiSort/Microcontroller/Libraries/CMSIS/Include\cmsis_gcc.h **** 
 699:C:/Users/Public/OptiSort/OptiSort/Microcontroller/Libraries/CMSIS/Include\cmsis_gcc.h **** #if ((defined (__ARM_ARCH_7EM__     ) && (__ARM_ARCH_7EM__     == 1)) || \
 700:C:/Users/Public/OptiSort/OptiSort/Microcontroller/Libraries/CMSIS/Include\cmsis_gcc.h ****      (defined (__ARM_ARCH_8M_MAIN__ ) && (__ARM_ARCH_8M_MAIN__ == 1))    )
 701:C:/Users/Public/OptiSort/OptiSort/Microcontroller/Libraries/CMSIS/Include\cmsis_gcc.h **** 
 702:C:/Users/Public/OptiSort/OptiSort/Microcontroller/Libraries/CMSIS/Include\cmsis_gcc.h **** /**
 703:C:/Users/Public/OptiSort/OptiSort/Microcontroller/Libraries/CMSIS/Include\cmsis_gcc.h ****   \brief   Get FPSCR
 704:C:/Users/Public/OptiSort/OptiSort/Microcontroller/Libraries/CMSIS/Include\cmsis_gcc.h ****   \details Returns the current value of the Floating Point Status/Control register.
 705:C:/Users/Public/OptiSort/OptiSort/Microcontroller/Libraries/CMSIS/Include\cmsis_gcc.h ****   \return               Floating Point Status/Control register value
 706:C:/Users/Public/OptiSort/OptiSort/Microcontroller/Libraries/CMSIS/Include\cmsis_gcc.h ****  */
 707:C:/Users/Public/OptiSort/OptiSort/Microcontroller/Libraries/CMSIS/Include\cmsis_gcc.h **** __STATIC_FORCEINLINE uint32_t __get_FPSCR(void)
 708:C:/Users/Public/OptiSort/OptiSort/Microcontroller/Libraries/CMSIS/Include\cmsis_gcc.h **** {
 709:C:/Users/Public/OptiSort/OptiSort/Microcontroller/Libraries/CMSIS/Include\cmsis_gcc.h **** #if ((defined (__FPU_PRESENT) && (__FPU_PRESENT == 1U)) && \
 710:C:/Users/Public/OptiSort/OptiSort/Microcontroller/Libraries/CMSIS/Include\cmsis_gcc.h ****      (defined (__FPU_USED   ) && (__FPU_USED    == 1U))     )
 711:C:/Users/Public/OptiSort/OptiSort/Microcontroller/Libraries/CMSIS/Include\cmsis_gcc.h **** #if __has_builtin(__builtin_arm_get_fpscr) || (__GNUC__ > 7) || (__GNUC__ == 7 && __GNUC_MINOR__ >=
 712:C:/Users/Public/OptiSort/OptiSort/Microcontroller/Libraries/CMSIS/Include\cmsis_gcc.h ****   /* see https://gcc.gnu.org/ml/gcc-patches/2017-04/msg00443.html */
 713:C:/Users/Public/OptiSort/OptiSort/Microcontroller/Libraries/CMSIS/Include\cmsis_gcc.h ****   return __builtin_arm_get_fpscr();
 714:C:/Users/Public/OptiSort/OptiSort/Microcontroller/Libraries/CMSIS/Include\cmsis_gcc.h **** #else
 715:C:/Users/Public/OptiSort/OptiSort/Microcontroller/Libraries/CMSIS/Include\cmsis_gcc.h ****   uint32_t result;
 716:C:/Users/Public/OptiSort/OptiSort/Microcontroller/Libraries/CMSIS/Include\cmsis_gcc.h **** 
 717:C:/Users/Public/OptiSort/OptiSort/Microcontroller/Libraries/CMSIS/Include\cmsis_gcc.h ****   __ASM volatile ("VMRS %0, fpscr" : "=r" (result) );
 718:C:/Users/Public/OptiSort/OptiSort/Microcontroller/Libraries/CMSIS/Include\cmsis_gcc.h ****   return(result);
 719:C:/Users/Public/OptiSort/OptiSort/Microcontroller/Libraries/CMSIS/Include\cmsis_gcc.h **** #endif
 720:C:/Users/Public/OptiSort/OptiSort/Microcontroller/Libraries/CMSIS/Include\cmsis_gcc.h **** #else
 721:C:/Users/Public/OptiSort/OptiSort/Microcontroller/Libraries/CMSIS/Include\cmsis_gcc.h ****   return(0U);
 722:C:/Users/Public/OptiSort/OptiSort/Microcontroller/Libraries/CMSIS/Include\cmsis_gcc.h **** #endif
 723:C:/Users/Public/OptiSort/OptiSort/Microcontroller/Libraries/CMSIS/Include\cmsis_gcc.h **** }
 724:C:/Users/Public/OptiSort/OptiSort/Microcontroller/Libraries/CMSIS/Include\cmsis_gcc.h **** 
 725:C:/Users/Public/OptiSort/OptiSort/Microcontroller/Libraries/CMSIS/Include\cmsis_gcc.h **** 
 726:C:/Users/Public/OptiSort/OptiSort/Microcontroller/Libraries/CMSIS/Include\cmsis_gcc.h **** /**
 727:C:/Users/Public/OptiSort/OptiSort/Microcontroller/Libraries/CMSIS/Include\cmsis_gcc.h ****   \brief   Set FPSCR
 728:C:/Users/Public/OptiSort/OptiSort/Microcontroller/Libraries/CMSIS/Include\cmsis_gcc.h ****   \details Assigns the given value to the Floating Point Status/Control register.
 729:C:/Users/Public/OptiSort/OptiSort/Microcontroller/Libraries/CMSIS/Include\cmsis_gcc.h ****   \param [in]    fpscr  Floating Point Status/Control value to set
 730:C:/Users/Public/OptiSort/OptiSort/Microcontroller/Libraries/CMSIS/Include\cmsis_gcc.h ****  */
 731:C:/Users/Public/OptiSort/OptiSort/Microcontroller/Libraries/CMSIS/Include\cmsis_gcc.h **** __STATIC_FORCEINLINE void __set_FPSCR(uint32_t fpscr)
 732:C:/Users/Public/OptiSort/OptiSort/Microcontroller/Libraries/CMSIS/Include\cmsis_gcc.h **** {
 733:C:/Users/Public/OptiSort/OptiSort/Microcontroller/Libraries/CMSIS/Include\cmsis_gcc.h **** #if ((defined (__FPU_PRESENT) && (__FPU_PRESENT == 1U)) && \
 734:C:/Users/Public/OptiSort/OptiSort/Microcontroller/Libraries/CMSIS/Include\cmsis_gcc.h ****      (defined (__FPU_USED   ) && (__FPU_USED    == 1U))     )
 735:C:/Users/Public/OptiSort/OptiSort/Microcontroller/Libraries/CMSIS/Include\cmsis_gcc.h **** #if __has_builtin(__builtin_arm_set_fpscr) || (__GNUC__ > 7) || (__GNUC__ == 7 && __GNUC_MINOR__ >=
 736:C:/Users/Public/OptiSort/OptiSort/Microcontroller/Libraries/CMSIS/Include\cmsis_gcc.h ****   /* see https://gcc.gnu.org/ml/gcc-patches/2017-04/msg00443.html */
 737:C:/Users/Public/OptiSort/OptiSort/Microcontroller/Libraries/CMSIS/Include\cmsis_gcc.h ****   __builtin_arm_set_fpscr(fpscr);
 738:C:/Users/Public/OptiSort/OptiSort/Microcontroller/Libraries/CMSIS/Include\cmsis_gcc.h **** #else
 739:C:/Users/Public/OptiSort/OptiSort/Microcontroller/Libraries/CMSIS/Include\cmsis_gcc.h ****   __ASM volatile ("VMSR fpscr, %0" : : "r" (fpscr) : "vfpcc", "memory");
 740:C:/Users/Public/OptiSort/OptiSort/Microcontroller/Libraries/CMSIS/Include\cmsis_gcc.h **** #endif
 741:C:/Users/Public/OptiSort/OptiSort/Microcontroller/Libraries/CMSIS/Include\cmsis_gcc.h **** #else
 742:C:/Users/Public/OptiSort/OptiSort/Microcontroller/Libraries/CMSIS/Include\cmsis_gcc.h ****   (void)fpscr;
 743:C:/Users/Public/OptiSort/OptiSort/Microcontroller/Libraries/CMSIS/Include\cmsis_gcc.h **** #endif
 744:C:/Users/Public/OptiSort/OptiSort/Microcontroller/Libraries/CMSIS/Include\cmsis_gcc.h **** }
 745:C:/Users/Public/OptiSort/OptiSort/Microcontroller/Libraries/CMSIS/Include\cmsis_gcc.h **** 
 746:C:/Users/Public/OptiSort/OptiSort/Microcontroller/Libraries/CMSIS/Include\cmsis_gcc.h **** #endif /* ((defined (__ARM_ARCH_7EM__     ) && (__ARM_ARCH_7EM__     == 1)) || \
 747:C:/Users/Public/OptiSort/OptiSort/Microcontroller/Libraries/CMSIS/Include\cmsis_gcc.h ****            (defined (__ARM_ARCH_8M_MAIN__ ) && (__ARM_ARCH_8M_MAIN__ == 1))    ) */
 748:C:/Users/Public/OptiSort/OptiSort/Microcontroller/Libraries/CMSIS/Include\cmsis_gcc.h **** 
 749:C:/Users/Public/OptiSort/OptiSort/Microcontroller/Libraries/CMSIS/Include\cmsis_gcc.h **** 
 750:C:/Users/Public/OptiSort/OptiSort/Microcontroller/Libraries/CMSIS/Include\cmsis_gcc.h **** 
 751:C:/Users/Public/OptiSort/OptiSort/Microcontroller/Libraries/CMSIS/Include\cmsis_gcc.h **** /*@} end of CMSIS_Core_RegAccFunctions */
 752:C:/Users/Public/OptiSort/OptiSort/Microcontroller/Libraries/CMSIS/Include\cmsis_gcc.h **** 
 753:C:/Users/Public/OptiSort/OptiSort/Microcontroller/Libraries/CMSIS/Include\cmsis_gcc.h **** 
 754:C:/Users/Public/OptiSort/OptiSort/Microcontroller/Libraries/CMSIS/Include\cmsis_gcc.h **** /* ##########################  Core Instruction Access  ######################### */
 755:C:/Users/Public/OptiSort/OptiSort/Microcontroller/Libraries/CMSIS/Include\cmsis_gcc.h **** /** \defgroup CMSIS_Core_InstructionInterface CMSIS Core Instruction Interface
 756:C:/Users/Public/OptiSort/OptiSort/Microcontroller/Libraries/CMSIS/Include\cmsis_gcc.h ****   Access to dedicated instructions
 757:C:/Users/Public/OptiSort/OptiSort/Microcontroller/Libraries/CMSIS/Include\cmsis_gcc.h ****   @{
 758:C:/Users/Public/OptiSort/OptiSort/Microcontroller/Libraries/CMSIS/Include\cmsis_gcc.h **** */
 759:C:/Users/Public/OptiSort/OptiSort/Microcontroller/Libraries/CMSIS/Include\cmsis_gcc.h **** 
 760:C:/Users/Public/OptiSort/OptiSort/Microcontroller/Libraries/CMSIS/Include\cmsis_gcc.h **** /* Define macros for porting to both thumb1 and thumb2.
 761:C:/Users/Public/OptiSort/OptiSort/Microcontroller/Libraries/CMSIS/Include\cmsis_gcc.h ****  * For thumb1, use low register (r0-r7), specified by constraint "l"
 762:C:/Users/Public/OptiSort/OptiSort/Microcontroller/Libraries/CMSIS/Include\cmsis_gcc.h ****  * Otherwise, use general registers, specified by constraint "r" */
 763:C:/Users/Public/OptiSort/OptiSort/Microcontroller/Libraries/CMSIS/Include\cmsis_gcc.h **** #if defined (__thumb__) && !defined (__thumb2__)
 764:C:/Users/Public/OptiSort/OptiSort/Microcontroller/Libraries/CMSIS/Include\cmsis_gcc.h **** #define __CMSIS_GCC_OUT_REG(r) "=l" (r)
 765:C:/Users/Public/OptiSort/OptiSort/Microcontroller/Libraries/CMSIS/Include\cmsis_gcc.h **** #define __CMSIS_GCC_RW_REG(r) "+l" (r)
 766:C:/Users/Public/OptiSort/OptiSort/Microcontroller/Libraries/CMSIS/Include\cmsis_gcc.h **** #define __CMSIS_GCC_USE_REG(r) "l" (r)
 767:C:/Users/Public/OptiSort/OptiSort/Microcontroller/Libraries/CMSIS/Include\cmsis_gcc.h **** #else
 768:C:/Users/Public/OptiSort/OptiSort/Microcontroller/Libraries/CMSIS/Include\cmsis_gcc.h **** #define __CMSIS_GCC_OUT_REG(r) "=r" (r)
 769:C:/Users/Public/OptiSort/OptiSort/Microcontroller/Libraries/CMSIS/Include\cmsis_gcc.h **** #define __CMSIS_GCC_RW_REG(r) "+r" (r)
 770:C:/Users/Public/OptiSort/OptiSort/Microcontroller/Libraries/CMSIS/Include\cmsis_gcc.h **** #define __CMSIS_GCC_USE_REG(r) "r" (r)
 771:C:/Users/Public/OptiSort/OptiSort/Microcontroller/Libraries/CMSIS/Include\cmsis_gcc.h **** #endif
 772:C:/Users/Public/OptiSort/OptiSort/Microcontroller/Libraries/CMSIS/Include\cmsis_gcc.h **** 
 773:C:/Users/Public/OptiSort/OptiSort/Microcontroller/Libraries/CMSIS/Include\cmsis_gcc.h **** /**
 774:C:/Users/Public/OptiSort/OptiSort/Microcontroller/Libraries/CMSIS/Include\cmsis_gcc.h ****   \brief   No Operation
 775:C:/Users/Public/OptiSort/OptiSort/Microcontroller/Libraries/CMSIS/Include\cmsis_gcc.h ****   \details No Operation does nothing. This instruction can be used for code alignment purposes.
 776:C:/Users/Public/OptiSort/OptiSort/Microcontroller/Libraries/CMSIS/Include\cmsis_gcc.h ****  */
 777:C:/Users/Public/OptiSort/OptiSort/Microcontroller/Libraries/CMSIS/Include\cmsis_gcc.h **** #define __NOP()                             __ASM volatile ("nop")
 778:C:/Users/Public/OptiSort/OptiSort/Microcontroller/Libraries/CMSIS/Include\cmsis_gcc.h **** 
 779:C:/Users/Public/OptiSort/OptiSort/Microcontroller/Libraries/CMSIS/Include\cmsis_gcc.h **** /**
 780:C:/Users/Public/OptiSort/OptiSort/Microcontroller/Libraries/CMSIS/Include\cmsis_gcc.h ****   \brief   Wait For Interrupt
 781:C:/Users/Public/OptiSort/OptiSort/Microcontroller/Libraries/CMSIS/Include\cmsis_gcc.h ****   \details Wait For Interrupt is a hint instruction that suspends execution until one of a number o
 782:C:/Users/Public/OptiSort/OptiSort/Microcontroller/Libraries/CMSIS/Include\cmsis_gcc.h ****  */
 783:C:/Users/Public/OptiSort/OptiSort/Microcontroller/Libraries/CMSIS/Include\cmsis_gcc.h **** #define __WFI()                             __ASM volatile ("wfi")
 784:C:/Users/Public/OptiSort/OptiSort/Microcontroller/Libraries/CMSIS/Include\cmsis_gcc.h **** 
 785:C:/Users/Public/OptiSort/OptiSort/Microcontroller/Libraries/CMSIS/Include\cmsis_gcc.h **** 
 786:C:/Users/Public/OptiSort/OptiSort/Microcontroller/Libraries/CMSIS/Include\cmsis_gcc.h **** /**
 787:C:/Users/Public/OptiSort/OptiSort/Microcontroller/Libraries/CMSIS/Include\cmsis_gcc.h ****   \brief   Wait For Event
 788:C:/Users/Public/OptiSort/OptiSort/Microcontroller/Libraries/CMSIS/Include\cmsis_gcc.h ****   \details Wait For Event is a hint instruction that permits the processor to enter
 789:C:/Users/Public/OptiSort/OptiSort/Microcontroller/Libraries/CMSIS/Include\cmsis_gcc.h ****            a low-power state until one of a number of events occurs.
 790:C:/Users/Public/OptiSort/OptiSort/Microcontroller/Libraries/CMSIS/Include\cmsis_gcc.h ****  */
 791:C:/Users/Public/OptiSort/OptiSort/Microcontroller/Libraries/CMSIS/Include\cmsis_gcc.h **** #define __WFE()                             __ASM volatile ("wfe")
 792:C:/Users/Public/OptiSort/OptiSort/Microcontroller/Libraries/CMSIS/Include\cmsis_gcc.h **** 
 793:C:/Users/Public/OptiSort/OptiSort/Microcontroller/Libraries/CMSIS/Include\cmsis_gcc.h **** 
 794:C:/Users/Public/OptiSort/OptiSort/Microcontroller/Libraries/CMSIS/Include\cmsis_gcc.h **** /**
 795:C:/Users/Public/OptiSort/OptiSort/Microcontroller/Libraries/CMSIS/Include\cmsis_gcc.h ****   \brief   Send Event
 796:C:/Users/Public/OptiSort/OptiSort/Microcontroller/Libraries/CMSIS/Include\cmsis_gcc.h ****   \details Send Event is a hint instruction. It causes an event to be signaled to the CPU.
 797:C:/Users/Public/OptiSort/OptiSort/Microcontroller/Libraries/CMSIS/Include\cmsis_gcc.h ****  */
 798:C:/Users/Public/OptiSort/OptiSort/Microcontroller/Libraries/CMSIS/Include\cmsis_gcc.h **** #define __SEV()                             __ASM volatile ("sev")
 799:C:/Users/Public/OptiSort/OptiSort/Microcontroller/Libraries/CMSIS/Include\cmsis_gcc.h **** 
 800:C:/Users/Public/OptiSort/OptiSort/Microcontroller/Libraries/CMSIS/Include\cmsis_gcc.h **** 
 801:C:/Users/Public/OptiSort/OptiSort/Microcontroller/Libraries/CMSIS/Include\cmsis_gcc.h **** /**
 802:C:/Users/Public/OptiSort/OptiSort/Microcontroller/Libraries/CMSIS/Include\cmsis_gcc.h ****   \brief   Instruction Synchronization Barrier
 803:C:/Users/Public/OptiSort/OptiSort/Microcontroller/Libraries/CMSIS/Include\cmsis_gcc.h ****   \details Instruction Synchronization Barrier flushes the pipeline in the processor,
 804:C:/Users/Public/OptiSort/OptiSort/Microcontroller/Libraries/CMSIS/Include\cmsis_gcc.h ****            so that all instructions following the ISB are fetched from cache or memory,
 805:C:/Users/Public/OptiSort/OptiSort/Microcontroller/Libraries/CMSIS/Include\cmsis_gcc.h ****            after the instruction has been completed.
 806:C:/Users/Public/OptiSort/OptiSort/Microcontroller/Libraries/CMSIS/Include\cmsis_gcc.h ****  */
 807:C:/Users/Public/OptiSort/OptiSort/Microcontroller/Libraries/CMSIS/Include\cmsis_gcc.h **** __STATIC_FORCEINLINE void __ISB(void)
 808:C:/Users/Public/OptiSort/OptiSort/Microcontroller/Libraries/CMSIS/Include\cmsis_gcc.h **** {
 809:C:/Users/Public/OptiSort/OptiSort/Microcontroller/Libraries/CMSIS/Include\cmsis_gcc.h ****   __ASM volatile ("isb 0xF":::"memory");
 810:C:/Users/Public/OptiSort/OptiSort/Microcontroller/Libraries/CMSIS/Include\cmsis_gcc.h **** }
 811:C:/Users/Public/OptiSort/OptiSort/Microcontroller/Libraries/CMSIS/Include\cmsis_gcc.h **** 
 812:C:/Users/Public/OptiSort/OptiSort/Microcontroller/Libraries/CMSIS/Include\cmsis_gcc.h **** 
 813:C:/Users/Public/OptiSort/OptiSort/Microcontroller/Libraries/CMSIS/Include\cmsis_gcc.h **** /**
 814:C:/Users/Public/OptiSort/OptiSort/Microcontroller/Libraries/CMSIS/Include\cmsis_gcc.h ****   \brief   Data Synchronization Barrier
 815:C:/Users/Public/OptiSort/OptiSort/Microcontroller/Libraries/CMSIS/Include\cmsis_gcc.h ****   \details Acts as a special kind of Data Memory Barrier.
 816:C:/Users/Public/OptiSort/OptiSort/Microcontroller/Libraries/CMSIS/Include\cmsis_gcc.h ****            It completes when all explicit memory accesses before this instruction complete.
 817:C:/Users/Public/OptiSort/OptiSort/Microcontroller/Libraries/CMSIS/Include\cmsis_gcc.h ****  */
 818:C:/Users/Public/OptiSort/OptiSort/Microcontroller/Libraries/CMSIS/Include\cmsis_gcc.h **** __STATIC_FORCEINLINE void __DSB(void)
 819:C:/Users/Public/OptiSort/OptiSort/Microcontroller/Libraries/CMSIS/Include\cmsis_gcc.h **** {
 820:C:/Users/Public/OptiSort/OptiSort/Microcontroller/Libraries/CMSIS/Include\cmsis_gcc.h ****   __ASM volatile ("dsb 0xF":::"memory");
 113              	 .loc 2 820 0
 114              	
 115 002a BFF34F8F 	 dsb 0xF
 116              	
 117              	 .code 16
 118              	.LBE7:
 119              	.LBE6:
 120              	.LBB8:
 121              	.LBB9:
 809:C:/Users/Public/OptiSort/OptiSort/Microcontroller/Libraries/CMSIS/Include\cmsis_gcc.h **** }
 122              	 .loc 2 809 0
 123              	
 124 002e BFF36F8F 	 isb 0xF
 125              	
 126              	 .code 16
 127              	.L5:
 128              	.LBE9:
 129              	.LBE8:
 656:C:/Users/Public/OptiSort/OptiSort/Microcontroller/Libraries/CMSIS/Include\core_cm0.h ****     __DSB();
 657:C:/Users/Public/OptiSort/OptiSort/Microcontroller/Libraries/CMSIS/Include\core_cm0.h ****     __ISB();
 658:C:/Users/Public/OptiSort/OptiSort/Microcontroller/Libraries/CMSIS/Include\core_cm0.h ****   }
 659:C:/Users/Public/OptiSort/OptiSort/Microcontroller/Libraries/CMSIS/Include\core_cm0.h **** }
 130              	 .loc 1 659 0
 131 0032 BD46     	 mov sp,r7
 132 0034 02B0     	 add sp,sp,#8
 133              	 
 134 0036 80BD     	 pop {r7,pc}
 135              	.L8:
 136              	 .align 2
 137              	.L7:
 138 0038 00E100E0 	 .word -536813312
 139              	 .cfi_endproc
 140              	.LFE25:
 142              	 .section .text.__NVIC_ClearPendingIRQ,"ax",%progbits
 143              	 .align 2
 144              	 .code 16
 145              	 .thumb_func
 147              	__NVIC_ClearPendingIRQ:
 148              	.LFB28:
 660:C:/Users/Public/OptiSort/OptiSort/Microcontroller/Libraries/CMSIS/Include\core_cm0.h **** 
 661:C:/Users/Public/OptiSort/OptiSort/Microcontroller/Libraries/CMSIS/Include\core_cm0.h **** 
 662:C:/Users/Public/OptiSort/OptiSort/Microcontroller/Libraries/CMSIS/Include\core_cm0.h **** /**
 663:C:/Users/Public/OptiSort/OptiSort/Microcontroller/Libraries/CMSIS/Include\core_cm0.h ****   \brief   Get Pending Interrupt
 664:C:/Users/Public/OptiSort/OptiSort/Microcontroller/Libraries/CMSIS/Include\core_cm0.h ****   \details Reads the NVIC pending register and returns the pending bit for the specified device spe
 665:C:/Users/Public/OptiSort/OptiSort/Microcontroller/Libraries/CMSIS/Include\core_cm0.h ****   \param [in]      IRQn  Device specific interrupt number.
 666:C:/Users/Public/OptiSort/OptiSort/Microcontroller/Libraries/CMSIS/Include\core_cm0.h ****   \return             0  Interrupt status is not pending.
 667:C:/Users/Public/OptiSort/OptiSort/Microcontroller/Libraries/CMSIS/Include\core_cm0.h ****   \return             1  Interrupt status is pending.
 668:C:/Users/Public/OptiSort/OptiSort/Microcontroller/Libraries/CMSIS/Include\core_cm0.h ****   \note    IRQn must not be negative.
 669:C:/Users/Public/OptiSort/OptiSort/Microcontroller/Libraries/CMSIS/Include\core_cm0.h ****  */
 670:C:/Users/Public/OptiSort/OptiSort/Microcontroller/Libraries/CMSIS/Include\core_cm0.h **** __STATIC_INLINE uint32_t __NVIC_GetPendingIRQ(IRQn_Type IRQn)
 671:C:/Users/Public/OptiSort/OptiSort/Microcontroller/Libraries/CMSIS/Include\core_cm0.h **** {
 672:C:/Users/Public/OptiSort/OptiSort/Microcontroller/Libraries/CMSIS/Include\core_cm0.h ****   if ((int32_t)(IRQn) >= 0)
 673:C:/Users/Public/OptiSort/OptiSort/Microcontroller/Libraries/CMSIS/Include\core_cm0.h ****   {
 674:C:/Users/Public/OptiSort/OptiSort/Microcontroller/Libraries/CMSIS/Include\core_cm0.h ****     return((uint32_t)(((NVIC->ISPR[0U] & (1UL << (((uint32_t)(int32_t)IRQn) & 0x1FUL))) != 0UL) ? 1
 675:C:/Users/Public/OptiSort/OptiSort/Microcontroller/Libraries/CMSIS/Include\core_cm0.h ****   }
 676:C:/Users/Public/OptiSort/OptiSort/Microcontroller/Libraries/CMSIS/Include\core_cm0.h ****   else
 677:C:/Users/Public/OptiSort/OptiSort/Microcontroller/Libraries/CMSIS/Include\core_cm0.h ****   {
 678:C:/Users/Public/OptiSort/OptiSort/Microcontroller/Libraries/CMSIS/Include\core_cm0.h ****     return(0U);
 679:C:/Users/Public/OptiSort/OptiSort/Microcontroller/Libraries/CMSIS/Include\core_cm0.h ****   }
 680:C:/Users/Public/OptiSort/OptiSort/Microcontroller/Libraries/CMSIS/Include\core_cm0.h **** }
 681:C:/Users/Public/OptiSort/OptiSort/Microcontroller/Libraries/CMSIS/Include\core_cm0.h **** 
 682:C:/Users/Public/OptiSort/OptiSort/Microcontroller/Libraries/CMSIS/Include\core_cm0.h **** 
 683:C:/Users/Public/OptiSort/OptiSort/Microcontroller/Libraries/CMSIS/Include\core_cm0.h **** /**
 684:C:/Users/Public/OptiSort/OptiSort/Microcontroller/Libraries/CMSIS/Include\core_cm0.h ****   \brief   Set Pending Interrupt
 685:C:/Users/Public/OptiSort/OptiSort/Microcontroller/Libraries/CMSIS/Include\core_cm0.h ****   \details Sets the pending bit of a device specific interrupt in the NVIC pending register.
 686:C:/Users/Public/OptiSort/OptiSort/Microcontroller/Libraries/CMSIS/Include\core_cm0.h ****   \param [in]      IRQn  Device specific interrupt number.
 687:C:/Users/Public/OptiSort/OptiSort/Microcontroller/Libraries/CMSIS/Include\core_cm0.h ****   \note    IRQn must not be negative.
 688:C:/Users/Public/OptiSort/OptiSort/Microcontroller/Libraries/CMSIS/Include\core_cm0.h ****  */
 689:C:/Users/Public/OptiSort/OptiSort/Microcontroller/Libraries/CMSIS/Include\core_cm0.h **** __STATIC_INLINE void __NVIC_SetPendingIRQ(IRQn_Type IRQn)
 690:C:/Users/Public/OptiSort/OptiSort/Microcontroller/Libraries/CMSIS/Include\core_cm0.h **** {
 691:C:/Users/Public/OptiSort/OptiSort/Microcontroller/Libraries/CMSIS/Include\core_cm0.h ****   if ((int32_t)(IRQn) >= 0)
 692:C:/Users/Public/OptiSort/OptiSort/Microcontroller/Libraries/CMSIS/Include\core_cm0.h ****   {
 693:C:/Users/Public/OptiSort/OptiSort/Microcontroller/Libraries/CMSIS/Include\core_cm0.h ****     NVIC->ISPR[0U] = (uint32_t)(1UL << (((uint32_t)(int32_t)IRQn) & 0x1FUL));
 694:C:/Users/Public/OptiSort/OptiSort/Microcontroller/Libraries/CMSIS/Include\core_cm0.h ****   }
 695:C:/Users/Public/OptiSort/OptiSort/Microcontroller/Libraries/CMSIS/Include\core_cm0.h **** }
 696:C:/Users/Public/OptiSort/OptiSort/Microcontroller/Libraries/CMSIS/Include\core_cm0.h **** 
 697:C:/Users/Public/OptiSort/OptiSort/Microcontroller/Libraries/CMSIS/Include\core_cm0.h **** 
 698:C:/Users/Public/OptiSort/OptiSort/Microcontroller/Libraries/CMSIS/Include\core_cm0.h **** /**
 699:C:/Users/Public/OptiSort/OptiSort/Microcontroller/Libraries/CMSIS/Include\core_cm0.h ****   \brief   Clear Pending Interrupt
 700:C:/Users/Public/OptiSort/OptiSort/Microcontroller/Libraries/CMSIS/Include\core_cm0.h ****   \details Clears the pending bit of a device specific interrupt in the NVIC pending register.
 701:C:/Users/Public/OptiSort/OptiSort/Microcontroller/Libraries/CMSIS/Include\core_cm0.h ****   \param [in]      IRQn  Device specific interrupt number.
 702:C:/Users/Public/OptiSort/OptiSort/Microcontroller/Libraries/CMSIS/Include\core_cm0.h ****   \note    IRQn must not be negative.
 703:C:/Users/Public/OptiSort/OptiSort/Microcontroller/Libraries/CMSIS/Include\core_cm0.h ****  */
 704:C:/Users/Public/OptiSort/OptiSort/Microcontroller/Libraries/CMSIS/Include\core_cm0.h **** __STATIC_INLINE void __NVIC_ClearPendingIRQ(IRQn_Type IRQn)
 705:C:/Users/Public/OptiSort/OptiSort/Microcontroller/Libraries/CMSIS/Include\core_cm0.h **** {
 149              	 .loc 1 705 0
 150              	 .cfi_startproc
 151 0000 80B5     	 push {r7,lr}
 152              	.LCFI6:
 153              	 .cfi_def_cfa_offset 8
 154              	 .cfi_offset 7,-8
 155              	 .cfi_offset 14,-4
 156 0002 82B0     	 sub sp,sp,#8
 157              	.LCFI7:
 158              	 .cfi_def_cfa_offset 16
 159 0004 00AF     	 add r7,sp,#0
 160              	.LCFI8:
 161              	 .cfi_def_cfa_register 7
 162 0006 021C     	 mov r2,r0
 163 0008 FB1D     	 add r3,r7,#7
 164 000a 1A70     	 strb r2,[r3]
 706:C:/Users/Public/OptiSort/OptiSort/Microcontroller/Libraries/CMSIS/Include\core_cm0.h ****   if ((int32_t)(IRQn) >= 0)
 165              	 .loc 1 706 0
 166 000c FB1D     	 add r3,r7,#7
 167 000e 1B78     	 ldrb r3,[r3]
 168 0010 7F2B     	 cmp r3,#127
 169 0012 0AD8     	 bhi .L9
 707:C:/Users/Public/OptiSort/OptiSort/Microcontroller/Libraries/CMSIS/Include\core_cm0.h ****   {
 708:C:/Users/Public/OptiSort/OptiSort/Microcontroller/Libraries/CMSIS/Include\core_cm0.h ****     NVIC->ICPR[0U] = (uint32_t)(1UL << (((uint32_t)(int32_t)IRQn) & 0x1FUL));
 170              	 .loc 1 708 0
 171 0014 0649     	 ldr r1,.L11
 172 0016 FB1D     	 add r3,r7,#7
 173 0018 1B78     	 ldrb r3,[r3]
 174 001a 1A1C     	 mov r2,r3
 175 001c 1F23     	 mov r3,#31
 176 001e 1340     	 and r3,r2
 177 0020 0122     	 mov r2,#1
 178 0022 9A40     	 lsl r2,r2,r3
 179 0024 C023     	 mov r3,#192
 180 0026 5B00     	 lsl r3,r3,#1
 181 0028 CA50     	 str r2,[r1,r3]
 182              	.L9:
 709:C:/Users/Public/OptiSort/OptiSort/Microcontroller/Libraries/CMSIS/Include\core_cm0.h ****   }
 710:C:/Users/Public/OptiSort/OptiSort/Microcontroller/Libraries/CMSIS/Include\core_cm0.h **** }
 183              	 .loc 1 710 0
 184 002a BD46     	 mov sp,r7
 185 002c 02B0     	 add sp,sp,#8
 186              	 
 187 002e 80BD     	 pop {r7,pc}
 188              	.L12:
 189              	 .align 2
 190              	.L11:
 191 0030 00E100E0 	 .word -536813312
 192              	 .cfi_endproc
 193              	.LFE28:
 195              	 .section .text.__NVIC_SetPriority,"ax",%progbits
 196              	 .align 2
 197              	 .code 16
 198              	 .thumb_func
 200              	__NVIC_SetPriority:
 201              	.LFB29:
 711:C:/Users/Public/OptiSort/OptiSort/Microcontroller/Libraries/CMSIS/Include\core_cm0.h **** 
 712:C:/Users/Public/OptiSort/OptiSort/Microcontroller/Libraries/CMSIS/Include\core_cm0.h **** 
 713:C:/Users/Public/OptiSort/OptiSort/Microcontroller/Libraries/CMSIS/Include\core_cm0.h **** /**
 714:C:/Users/Public/OptiSort/OptiSort/Microcontroller/Libraries/CMSIS/Include\core_cm0.h ****   \brief   Set Interrupt Priority
 715:C:/Users/Public/OptiSort/OptiSort/Microcontroller/Libraries/CMSIS/Include\core_cm0.h ****   \details Sets the priority of a device specific interrupt or a processor exception.
 716:C:/Users/Public/OptiSort/OptiSort/Microcontroller/Libraries/CMSIS/Include\core_cm0.h ****            The interrupt number can be positive to specify a device specific interrupt,
 717:C:/Users/Public/OptiSort/OptiSort/Microcontroller/Libraries/CMSIS/Include\core_cm0.h ****            or negative to specify a processor exception.
 718:C:/Users/Public/OptiSort/OptiSort/Microcontroller/Libraries/CMSIS/Include\core_cm0.h ****   \param [in]      IRQn  Interrupt number.
 719:C:/Users/Public/OptiSort/OptiSort/Microcontroller/Libraries/CMSIS/Include\core_cm0.h ****   \param [in]  priority  Priority to set.
 720:C:/Users/Public/OptiSort/OptiSort/Microcontroller/Libraries/CMSIS/Include\core_cm0.h ****   \note    The priority cannot be set for every processor exception.
 721:C:/Users/Public/OptiSort/OptiSort/Microcontroller/Libraries/CMSIS/Include\core_cm0.h ****  */
 722:C:/Users/Public/OptiSort/OptiSort/Microcontroller/Libraries/CMSIS/Include\core_cm0.h **** __STATIC_INLINE void __NVIC_SetPriority(IRQn_Type IRQn, uint32_t priority)
 723:C:/Users/Public/OptiSort/OptiSort/Microcontroller/Libraries/CMSIS/Include\core_cm0.h **** {
 202              	 .loc 1 723 0
 203              	 .cfi_startproc
 204 0000 B0B5     	 push {r4,r5,r7,lr}
 205              	.LCFI9:
 206              	 .cfi_def_cfa_offset 16
 207              	 .cfi_offset 4,-16
 208              	 .cfi_offset 5,-12
 209              	 .cfi_offset 7,-8
 210              	 .cfi_offset 14,-4
 211 0002 82B0     	 sub sp,sp,#8
 212              	.LCFI10:
 213              	 .cfi_def_cfa_offset 24
 214 0004 00AF     	 add r7,sp,#0
 215              	.LCFI11:
 216              	 .cfi_def_cfa_register 7
 217 0006 021C     	 mov r2,r0
 218 0008 3960     	 str r1,[r7]
 219 000a FB1D     	 add r3,r7,#7
 220 000c 1A70     	 strb r2,[r3]
 724:C:/Users/Public/OptiSort/OptiSort/Microcontroller/Libraries/CMSIS/Include\core_cm0.h ****   if ((int32_t)(IRQn) >= 0)
 221              	 .loc 1 724 0
 222 000e FB1D     	 add r3,r7,#7
 223 0010 1B78     	 ldrb r3,[r3]
 224 0012 7F2B     	 cmp r3,#127
 225 0014 27D8     	 bhi .L14
 725:C:/Users/Public/OptiSort/OptiSort/Microcontroller/Libraries/CMSIS/Include\core_cm0.h ****   {
 726:C:/Users/Public/OptiSort/OptiSort/Microcontroller/Libraries/CMSIS/Include\core_cm0.h ****     NVIC->IP[_IP_IDX(IRQn)]  = ((uint32_t)(NVIC->IP[_IP_IDX(IRQn)]  & ~(0xFFUL << _BIT_SHIFT(IRQn))
 226              	 .loc 1 726 0
 227 0016 2D4C     	 ldr r4,.L16
 228 0018 FB1D     	 add r3,r7,#7
 229 001a 1B78     	 ldrb r3,[r3]
 230 001c 5BB2     	 sxtb r3,r3
 231 001e 9B08     	 lsr r3,r3,#2
 232 0020 2A49     	 ldr r1,.L16
 233 0022 FA1D     	 add r2,r7,#7
 234 0024 1278     	 ldrb r2,[r2]
 235 0026 52B2     	 sxtb r2,r2
 236 0028 9208     	 lsr r2,r2,#2
 237 002a C032     	 add r2,r2,#192
 238 002c 9200     	 lsl r2,r2,#2
 239 002e 5258     	 ldr r2,[r2,r1]
 240 0030 F91D     	 add r1,r7,#7
 241 0032 0978     	 ldrb r1,[r1]
 242 0034 081C     	 mov r0,r1
 243 0036 0321     	 mov r1,#3
 244 0038 0140     	 and r1,r0
 245 003a C900     	 lsl r1,r1,#3
 246 003c 081C     	 mov r0,r1
 247 003e FF21     	 mov r1,#255
 248 0040 8140     	 lsl r1,r1,r0
 249 0042 C943     	 mvn r1,r1
 250 0044 1140     	 and r1,r2
 727:C:/Users/Public/OptiSort/OptiSort/Microcontroller/Libraries/CMSIS/Include\core_cm0.h ****        (((priority << (8U - __NVIC_PRIO_BITS)) & (uint32_t)0xFFUL) << _BIT_SHIFT(IRQn)));
 251              	 .loc 1 727 0
 252 0046 3A68     	 ldr r2,[r7]
 253 0048 9201     	 lsl r2,r2,#6
 254 004a FF20     	 mov r0,#255
 255 004c 0240     	 and r2,r0
 256 004e F81D     	 add r0,r7,#7
 257 0050 0078     	 ldrb r0,[r0]
 258 0052 051C     	 mov r5,r0
 259 0054 0320     	 mov r0,#3
 260 0056 2840     	 and r0,r5
 261 0058 C000     	 lsl r0,r0,#3
 262 005a 8240     	 lsl r2,r2,r0
 726:C:/Users/Public/OptiSort/OptiSort/Microcontroller/Libraries/CMSIS/Include\core_cm0.h ****        (((priority << (8U - __NVIC_PRIO_BITS)) & (uint32_t)0xFFUL) << _BIT_SHIFT(IRQn)));
 263              	 .loc 1 726 0
 264 005c 0A43     	 orr r2,r1
 265 005e C033     	 add r3,r3,#192
 266 0060 9B00     	 lsl r3,r3,#2
 267 0062 1A51     	 str r2,[r3,r4]
 268 0064 2EE0     	 b .L13
 269              	.L14:
 728:C:/Users/Public/OptiSort/OptiSort/Microcontroller/Libraries/CMSIS/Include\core_cm0.h ****   }
 729:C:/Users/Public/OptiSort/OptiSort/Microcontroller/Libraries/CMSIS/Include\core_cm0.h ****   else
 730:C:/Users/Public/OptiSort/OptiSort/Microcontroller/Libraries/CMSIS/Include\core_cm0.h ****   {
 731:C:/Users/Public/OptiSort/OptiSort/Microcontroller/Libraries/CMSIS/Include\core_cm0.h ****     SCB->SHP[_SHP_IDX(IRQn)] = ((uint32_t)(SCB->SHP[_SHP_IDX(IRQn)] & ~(0xFFUL << _BIT_SHIFT(IRQn))
 270              	 .loc 1 731 0
 271 0066 1A4C     	 ldr r4,.L16+4
 272 0068 FB1D     	 add r3,r7,#7
 273 006a 1B78     	 ldrb r3,[r3]
 274 006c 1A1C     	 mov r2,r3
 275 006e 0F23     	 mov r3,#15
 276 0070 1340     	 and r3,r2
 277 0072 083B     	 sub r3,r3,#8
 278 0074 9908     	 lsr r1,r3,#2
 279 0076 164A     	 ldr r2,.L16+4
 280 0078 FB1D     	 add r3,r7,#7
 281 007a 1B78     	 ldrb r3,[r3]
 282 007c 181C     	 mov r0,r3
 283 007e 0F23     	 mov r3,#15
 284 0080 0340     	 and r3,r0
 285 0082 083B     	 sub r3,r3,#8
 286 0084 9B08     	 lsr r3,r3,#2
 287 0086 0633     	 add r3,r3,#6
 288 0088 9B00     	 lsl r3,r3,#2
 289 008a D318     	 add r3,r2,r3
 290 008c 5B68     	 ldr r3,[r3,#4]
 291 008e FA1D     	 add r2,r7,#7
 292 0090 1278     	 ldrb r2,[r2]
 293 0092 101C     	 mov r0,r2
 294 0094 0322     	 mov r2,#3
 295 0096 0240     	 and r2,r0
 296 0098 D200     	 lsl r2,r2,#3
 297 009a 101C     	 mov r0,r2
 298 009c FF22     	 mov r2,#255
 299 009e 8240     	 lsl r2,r2,r0
 300 00a0 D243     	 mvn r2,r2
 301 00a2 1A40     	 and r2,r3
 732:C:/Users/Public/OptiSort/OptiSort/Microcontroller/Libraries/CMSIS/Include\core_cm0.h ****        (((priority << (8U - __NVIC_PRIO_BITS)) & (uint32_t)0xFFUL) << _BIT_SHIFT(IRQn)));
 302              	 .loc 1 732 0
 303 00a4 3B68     	 ldr r3,[r7]
 304 00a6 9B01     	 lsl r3,r3,#6
 305 00a8 FF20     	 mov r0,#255
 306 00aa 0340     	 and r3,r0
 307 00ac F81D     	 add r0,r7,#7
 308 00ae 0078     	 ldrb r0,[r0]
 309 00b0 051C     	 mov r5,r0
 310 00b2 0320     	 mov r0,#3
 311 00b4 2840     	 and r0,r5
 312 00b6 C000     	 lsl r0,r0,#3
 313 00b8 8340     	 lsl r3,r3,r0
 731:C:/Users/Public/OptiSort/OptiSort/Microcontroller/Libraries/CMSIS/Include\core_cm0.h ****        (((priority << (8U - __NVIC_PRIO_BITS)) & (uint32_t)0xFFUL) << _BIT_SHIFT(IRQn)));
 314              	 .loc 1 731 0
 315 00ba 1A43     	 orr r2,r3
 316 00bc 8B1D     	 add r3,r1,#6
 317 00be 9B00     	 lsl r3,r3,#2
 318 00c0 E318     	 add r3,r4,r3
 319 00c2 5A60     	 str r2,[r3,#4]
 320              	.L13:
 733:C:/Users/Public/OptiSort/OptiSort/Microcontroller/Libraries/CMSIS/Include\core_cm0.h ****   }
 734:C:/Users/Public/OptiSort/OptiSort/Microcontroller/Libraries/CMSIS/Include\core_cm0.h **** }
 321              	 .loc 1 734 0
 322 00c4 BD46     	 mov sp,r7
 323 00c6 02B0     	 add sp,sp,#8
 324              	 
 325 00c8 B0BD     	 pop {r4,r5,r7,pc}
 326              	.L17:
 327 00ca C046     	 .align 2
 328              	.L16:
 329 00cc 00E100E0 	 .word -536813312
 330 00d0 00ED00E0 	 .word -536810240
 331              	 .cfi_endproc
 332              	.LFE29:
 334              	 .comm rs232Receivedata,256,4
 335              	 .global rs232ReceivedataPointer
 336              	 .section .bss.rs232ReceivedataPointer,"aw",%nobits
 339              	rs232ReceivedataPointer:
 340 0000 00       	 .space 1
 341              	 .global rs232EnterReceive
 342              	 .section .bss.rs232EnterReceive,"aw",%nobits
 345              	rs232EnterReceive:
 346 0000 00       	 .space 1
 347              	 .comm uartReceivedata,256,4
 348              	 .global uartReceivedataPointer
 349              	 .section .bss.uartReceivedataPointer,"aw",%nobits
 352              	uartReceivedataPointer:
 353 0000 00       	 .space 1
 354              	 .global uartEnterReceive
 355              	 .section .bss.uartEnterReceive,"aw",%nobits
 358              	uartEnterReceive:
 359 0000 00       	 .space 1
 360              	 .section .text.bit_init,"ax",%progbits
 361              	 .align 2
 362              	 .global bit_init
 363              	 .code 16
 364              	 .thumb_func
 366              	bit_init:
 367              	.LFB36:
 368              	 .file 3 "../XMC1100-LibHaas.c"
   1:../XMC1100-LibHaas.c **** // Bibliothek:       XMC1100-LibHaas.c Vers 0.82 vom 19.09.2021
   2:../XMC1100-LibHaas.c **** // Controller:       XMC1100 Board XMC1100 Boot Kit
   3:../XMC1100-LibHaas.c **** // Adapterboard:	 XMC-Learnboard Version0_9
   4:../XMC1100-LibHaas.c **** // Ausgangsversion:  Version 1.8 Birk, Bubbers
   5:../XMC1100-LibHaas.c **** // Autor			 Haas
   6:../XMC1100-LibHaas.c **** #include <xmc1100-LibHaas.h>
   7:../XMC1100-LibHaas.c **** 
   8:../XMC1100-LibHaas.c **** // Global Variablen
   9:../XMC1100-LibHaas.c **** // RS232
  10:../XMC1100-LibHaas.c **** char rs232Receivedata[256];
  11:../XMC1100-LibHaas.c **** uint8_t rs232ReceivedataPointer=0;
  12:../XMC1100-LibHaas.c **** uint8_t rs232EnterReceive=0;
  13:../XMC1100-LibHaas.c **** // UART
  14:../XMC1100-LibHaas.c **** char uartReceivedata[256];
  15:../XMC1100-LibHaas.c **** uint8_t uartReceivedataPointer=0;
  16:../XMC1100-LibHaas.c **** uint8_t uartEnterReceive=0;
  17:../XMC1100-LibHaas.c **** 
  18:../XMC1100-LibHaas.c **** // Definition der lokalen Funktionen:
  19:../XMC1100-LibHaas.c **** uint16_t bit_set_clr(uint16_t wert, uint16_t set ,uint16_t bitnr);
  20:../XMC1100-LibHaas.c **** void clock_init(void);
  21:../XMC1100-LibHaas.c **** 
  22:../XMC1100-LibHaas.c **** //***************************************************************
  23:../XMC1100-LibHaas.c **** // ab hier Funktionen fr Port-Ein-/Ausgabe
  24:../XMC1100-LibHaas.c **** //***************************************************************
  25:../XMC1100-LibHaas.c **** 
  26:../XMC1100-LibHaas.c **** // --------------------------------------------------------------
  27:../XMC1100-LibHaas.c **** // Einzelnes Bit fr Ein- oder Ausgabe initialisieren
  28:../XMC1100-LibHaas.c **** // port: P0,P1,P2 bitnr: 0..15 direction: INP 0, OUTP 1
  29:../XMC1100-LibHaas.c **** //---------------------------------------------------------------
  30:../XMC1100-LibHaas.c **** void bit_init(uint8_t port, uint8_t bitnr, uint8_t direction)
  31:../XMC1100-LibHaas.c **** {
 369              	 .loc 3 31 0
 370              	 .cfi_startproc
 371 0000 90B5     	 push {r4,r7,lr}
 372              	.LCFI12:
 373              	 .cfi_def_cfa_offset 12
 374              	 .cfi_offset 4,-12
 375              	 .cfi_offset 7,-8
 376              	 .cfi_offset 14,-4
 377 0002 83B0     	 sub sp,sp,#12
 378              	.LCFI13:
 379              	 .cfi_def_cfa_offset 24
 380 0004 00AF     	 add r7,sp,#0
 381              	.LCFI14:
 382              	 .cfi_def_cfa_register 7
 383 0006 041C     	 mov r4,r0
 384 0008 081C     	 mov r0,r1
 385 000a 111C     	 mov r1,r2
 386 000c FB1D     	 add r3,r7,#7
 387 000e 221C     	 add r2,r4,#0
 388 0010 1A70     	 strb r2,[r3]
 389 0012 BB1D     	 add r3,r7,#6
 390 0014 021C     	 add r2,r0,#0
 391 0016 1A70     	 strb r2,[r3]
 392 0018 7B1D     	 add r3,r7,#5
 393 001a 0A1C     	 add r2,r1,#0
 394 001c 1A70     	 strb r2,[r3]
  32:../XMC1100-LibHaas.c **** 	switch (port)
 395              	 .loc 3 32 0
 396 001e FB1D     	 add r3,r7,#7
 397 0020 1B78     	 ldrb r3,[r3]
 398 0022 012B     	 cmp r3,#1
 399 0024 00D1     	 bne .LCB329
 400 0026 A1E0     	 b .L20
 401              	.LCB329:
 402 0028 022B     	 cmp r3,#2
 403 002a 00D1     	 bne .LCB331
 404 002c EAE0     	 b .L21
 405              	.LCB331:
 406 002e 002B     	 cmp r3,#0
 407 0030 00D0     	 beq .LCB333
 408 0032 9BE1     	 b .L18
 409              	.LCB333:
  33:../XMC1100-LibHaas.c **** 	{
  34:../XMC1100-LibHaas.c **** 		case 0 :
  35:../XMC1100-LibHaas.c **** 			{if (bitnr < 4 )
 410              	 .loc 3 35 0
 411 0034 BB1D     	 add r3,r7,#6
 412 0036 1B78     	 ldrb r3,[r3]
 413 0038 032B     	 cmp r3,#3
 414 003a 1DD8     	 bhi .L23
  36:../XMC1100-LibHaas.c **** 				{ if (direction == 1) PORT0->IOCR0 |=1UL << ((bitnr * 8)+7);
 415              	 .loc 3 36 0
 416 003c 7B1D     	 add r3,r7,#5
 417 003e 1B78     	 ldrb r3,[r3]
 418 0040 012B     	 cmp r3,#1
 419 0042 0CD1     	 bne .L24
 420              	 .loc 3 36 0 is_stmt 0 discriminator 1
 421 0044 CB4B     	 ldr r3,.L42
 422 0046 CB4A     	 ldr r2,.L42
 423 0048 1169     	 ldr r1,[r2,#16]
 424 004a BA1D     	 add r2,r7,#6
 425 004c 1278     	 ldrb r2,[r2]
 426 004e D200     	 lsl r2,r2,#3
 427 0050 0732     	 add r2,r2,#7
 428 0052 0120     	 mov r0,#1
 429 0054 9040     	 lsl r0,r0,r2
 430 0056 021C     	 mov r2,r0
 431 0058 0A43     	 orr r2,r1
 432 005a 1A61     	 str r2,[r3,#16]
 433 005c 0CE0     	 b .L23
 434              	.L24:
  37:../XMC1100-LibHaas.c **** 				  else PORT0->IOCR0 &= ~(1UL << ((bitnr * 8 ) + 7 ));
 435              	 .loc 3 37 0 is_stmt 1
 436 005e C54B     	 ldr r3,.L42
 437 0060 C44A     	 ldr r2,.L42
 438 0062 1269     	 ldr r2,[r2,#16]
 439 0064 B91D     	 add r1,r7,#6
 440 0066 0978     	 ldrb r1,[r1]
 441 0068 C900     	 lsl r1,r1,#3
 442 006a 0731     	 add r1,r1,#7
 443 006c 0120     	 mov r0,#1
 444 006e 8840     	 lsl r0,r0,r1
 445 0070 011C     	 mov r1,r0
 446 0072 C943     	 mvn r1,r1
 447 0074 0A40     	 and r2,r1
 448 0076 1A61     	 str r2,[r3,#16]
 449              	.L23:
  38:../XMC1100-LibHaas.c **** 				}
  39:../XMC1100-LibHaas.c **** 			 if ( (bitnr <8) && (bitnr > 3))
 450              	 .loc 3 39 0
 451 0078 BB1D     	 add r3,r7,#6
 452 007a 1B78     	 ldrb r3,[r3]
 453 007c 072B     	 cmp r3,#7
 454 007e 23D8     	 bhi .L25
 455              	 .loc 3 39 0 is_stmt 0 discriminator 1
 456 0080 BB1D     	 add r3,r7,#6
 457 0082 1B78     	 ldrb r3,[r3]
 458 0084 032B     	 cmp r3,#3
 459 0086 1FD9     	 bls .L25
  40:../XMC1100-LibHaas.c **** 					 { if (direction == 1) PORT0->IOCR4 |= 1UL<< (((bitnr-4) * 8)+7);
 460              	 .loc 3 40 0 is_stmt 1
 461 0088 7B1D     	 add r3,r7,#5
 462 008a 1B78     	 ldrb r3,[r3]
 463 008c 012B     	 cmp r3,#1
 464 008e 0DD1     	 bne .L26
 465              	 .loc 3 40 0 is_stmt 0 discriminator 1
 466 0090 B84B     	 ldr r3,.L42
 467 0092 B84A     	 ldr r2,.L42
 468 0094 5169     	 ldr r1,[r2,#20]
 469 0096 BA1D     	 add r2,r7,#6
 470 0098 1278     	 ldrb r2,[r2]
 471 009a 043A     	 sub r2,r2,#4
 472 009c D200     	 lsl r2,r2,#3
 473 009e 0732     	 add r2,r2,#7
 474 00a0 0120     	 mov r0,#1
 475 00a2 9040     	 lsl r0,r0,r2
 476 00a4 021C     	 mov r2,r0
 477 00a6 0A43     	 orr r2,r1
 478 00a8 5A61     	 str r2,[r3,#20]
 479 00aa 0DE0     	 b .L25
 480              	.L26:
  41:../XMC1100-LibHaas.c **** 					   else PORT0->IOCR4 &= ~(1UL << (((bitnr-4) * 8)+7) );
 481              	 .loc 3 41 0 is_stmt 1
 482 00ac B14B     	 ldr r3,.L42
 483 00ae B14A     	 ldr r2,.L42
 484 00b0 5269     	 ldr r2,[r2,#20]
 485 00b2 B91D     	 add r1,r7,#6
 486 00b4 0978     	 ldrb r1,[r1]
 487 00b6 0439     	 sub r1,r1,#4
 488 00b8 C900     	 lsl r1,r1,#3
 489 00ba 0731     	 add r1,r1,#7
 490 00bc 0120     	 mov r0,#1
 491 00be 8840     	 lsl r0,r0,r1
 492 00c0 011C     	 mov r1,r0
 493 00c2 C943     	 mvn r1,r1
 494 00c4 0A40     	 and r2,r1
 495 00c6 5A61     	 str r2,[r3,#20]
 496              	.L25:
  42:../XMC1100-LibHaas.c **** 					 }
  43:../XMC1100-LibHaas.c **** 			 if ( (bitnr <12) && (bitnr > 7))
 497              	 .loc 3 43 0
 498 00c8 BB1D     	 add r3,r7,#6
 499 00ca 1B78     	 ldrb r3,[r3]
 500 00cc 0B2B     	 cmp r3,#11
 501 00ce 23D8     	 bhi .L27
 502              	 .loc 3 43 0 is_stmt 0 discriminator 1
 503 00d0 BB1D     	 add r3,r7,#6
 504 00d2 1B78     	 ldrb r3,[r3]
 505 00d4 072B     	 cmp r3,#7
 506 00d6 1FD9     	 bls .L27
  44:../XMC1100-LibHaas.c **** 			 		 { if (direction == 1) PORT0->IOCR8 |= 1UL << (((bitnr-8) * 8)+7);
 507              	 .loc 3 44 0 is_stmt 1
 508 00d8 7B1D     	 add r3,r7,#5
 509 00da 1B78     	 ldrb r3,[r3]
 510 00dc 012B     	 cmp r3,#1
 511 00de 0DD1     	 bne .L28
 512              	 .loc 3 44 0 is_stmt 0 discriminator 1
 513 00e0 A44B     	 ldr r3,.L42
 514 00e2 A44A     	 ldr r2,.L42
 515 00e4 9169     	 ldr r1,[r2,#24]
 516 00e6 BA1D     	 add r2,r7,#6
 517 00e8 1278     	 ldrb r2,[r2]
 518 00ea 083A     	 sub r2,r2,#8
 519 00ec D200     	 lsl r2,r2,#3
 520 00ee 0732     	 add r2,r2,#7
 521 00f0 0120     	 mov r0,#1
 522 00f2 9040     	 lsl r0,r0,r2
 523 00f4 021C     	 mov r2,r0
 524 00f6 0A43     	 orr r2,r1
 525 00f8 9A61     	 str r2,[r3,#24]
 526 00fa 0DE0     	 b .L27
 527              	.L28:
  45:../XMC1100-LibHaas.c **** 			 		   else PORT0->IOCR8 &= ~(1UL << (((bitnr-8) * 8)+7) );
 528              	 .loc 3 45 0 is_stmt 1
 529 00fc 9D4B     	 ldr r3,.L42
 530 00fe 9D4A     	 ldr r2,.L42
 531 0100 9269     	 ldr r2,[r2,#24]
 532 0102 B91D     	 add r1,r7,#6
 533 0104 0978     	 ldrb r1,[r1]
 534 0106 0839     	 sub r1,r1,#8
 535 0108 C900     	 lsl r1,r1,#3
 536 010a 0731     	 add r1,r1,#7
 537 010c 0120     	 mov r0,#1
 538 010e 8840     	 lsl r0,r0,r1
 539 0110 011C     	 mov r1,r0
 540 0112 C943     	 mvn r1,r1
 541 0114 0A40     	 and r2,r1
 542 0116 9A61     	 str r2,[r3,#24]
 543              	.L27:
  46:../XMC1100-LibHaas.c **** 			 		 }
  47:../XMC1100-LibHaas.c **** 			 if ( (bitnr <16) && (bitnr > 11))
 544              	 .loc 3 47 0
 545 0118 BB1D     	 add r3,r7,#6
 546 011a 1B78     	 ldrb r3,[r3]
 547 011c 0F2B     	 cmp r3,#15
 548 011e 24D8     	 bhi .L29
 549              	 .loc 3 47 0 is_stmt 0 discriminator 1
 550 0120 BB1D     	 add r3,r7,#6
 551 0122 1B78     	 ldrb r3,[r3]
 552 0124 0B2B     	 cmp r3,#11
 553 0126 20D9     	 bls .L29
  48:../XMC1100-LibHaas.c **** 			 		{ if (direction == 1) PORT0->IOCR12 |= 1UL << (((bitnr-12) * 8)+7);
 554              	 .loc 3 48 0 is_stmt 1
 555 0128 7B1D     	 add r3,r7,#5
 556 012a 1B78     	 ldrb r3,[r3]
 557 012c 012B     	 cmp r3,#1
 558 012e 0DD1     	 bne .L30
 559              	 .loc 3 48 0 is_stmt 0 discriminator 1
 560 0130 904B     	 ldr r3,.L42
 561 0132 904A     	 ldr r2,.L42
 562 0134 D169     	 ldr r1,[r2,#28]
 563 0136 BA1D     	 add r2,r7,#6
 564 0138 1278     	 ldrb r2,[r2]
 565 013a 0C3A     	 sub r2,r2,#12
 566 013c D200     	 lsl r2,r2,#3
 567 013e 0732     	 add r2,r2,#7
 568 0140 0120     	 mov r0,#1
 569 0142 9040     	 lsl r0,r0,r2
 570 0144 021C     	 mov r2,r0
 571 0146 0A43     	 orr r2,r1
 572 0148 DA61     	 str r2,[r3,#28]
 573 014a 0EE0     	 b .L29
 574              	.L30:
  49:../XMC1100-LibHaas.c **** 			 		  else PORT0->IOCR12 &= ~(1UL << (((bitnr-12) * 8)+7) );
 575              	 .loc 3 49 0 is_stmt 1
 576 014c 894B     	 ldr r3,.L42
 577 014e 894A     	 ldr r2,.L42
 578 0150 D269     	 ldr r2,[r2,#28]
 579 0152 B91D     	 add r1,r7,#6
 580 0154 0978     	 ldrb r1,[r1]
 581 0156 0C39     	 sub r1,r1,#12
 582 0158 C900     	 lsl r1,r1,#3
 583 015a 0731     	 add r1,r1,#7
 584 015c 0120     	 mov r0,#1
 585 015e 8840     	 lsl r0,r0,r1
 586 0160 011C     	 mov r1,r0
 587 0162 C943     	 mvn r1,r1
 588 0164 0A40     	 and r2,r1
 589 0166 DA61     	 str r2,[r3,#28]
  50:../XMC1100-LibHaas.c **** 			 		}
  51:../XMC1100-LibHaas.c **** 			}
  52:../XMC1100-LibHaas.c **** 			break;
 590              	 .loc 3 52 0
 591 0168 00E1     	 b .L18
 592              	.L29:
 593 016a FFE0     	 b .L18
 594              	.L20:
  53:../XMC1100-LibHaas.c **** 	  case 1 :
  54:../XMC1100-LibHaas.c **** 			{
  55:../XMC1100-LibHaas.c **** 				{if (bitnr < 4 )
 595              	 .loc 3 55 0
 596 016c BB1D     	 add r3,r7,#6
 597 016e 1B78     	 ldrb r3,[r3]
 598 0170 032B     	 cmp r3,#3
 599 0172 1DD8     	 bhi .L31
  56:../XMC1100-LibHaas.c **** 					{ if (direction == 1) PORT1->IOCR0 |=1UL << ((bitnr * 8)+7);
 600              	 .loc 3 56 0
 601 0174 7B1D     	 add r3,r7,#5
 602 0176 1B78     	 ldrb r3,[r3]
 603 0178 012B     	 cmp r3,#1
 604 017a 0CD1     	 bne .L32
 605              	 .loc 3 56 0 is_stmt 0 discriminator 1
 606 017c 7E4B     	 ldr r3,.L42+4
 607 017e 7E4A     	 ldr r2,.L42+4
 608 0180 1169     	 ldr r1,[r2,#16]
 609 0182 BA1D     	 add r2,r7,#6
 610 0184 1278     	 ldrb r2,[r2]
 611 0186 D200     	 lsl r2,r2,#3
 612 0188 0732     	 add r2,r2,#7
 613 018a 0120     	 mov r0,#1
 614 018c 9040     	 lsl r0,r0,r2
 615 018e 021C     	 mov r2,r0
 616 0190 0A43     	 orr r2,r1
 617 0192 1A61     	 str r2,[r3,#16]
 618 0194 0CE0     	 b .L31
 619              	.L32:
  57:../XMC1100-LibHaas.c **** 						else PORT1->IOCR0 &= ~(1UL << ((bitnr * 8 ) + 7 ));
 620              	 .loc 3 57 0 is_stmt 1
 621 0196 784B     	 ldr r3,.L42+4
 622 0198 774A     	 ldr r2,.L42+4
 623 019a 1269     	 ldr r2,[r2,#16]
 624 019c B91D     	 add r1,r7,#6
 625 019e 0978     	 ldrb r1,[r1]
 626 01a0 C900     	 lsl r1,r1,#3
 627 01a2 0731     	 add r1,r1,#7
 628 01a4 0120     	 mov r0,#1
 629 01a6 8840     	 lsl r0,r0,r1
 630 01a8 011C     	 mov r1,r0
 631 01aa C943     	 mvn r1,r1
 632 01ac 0A40     	 and r2,r1
 633 01ae 1A61     	 str r2,[r3,#16]
 634              	.L31:
  58:../XMC1100-LibHaas.c **** 					}
  59:../XMC1100-LibHaas.c **** 			if ((bitnr < 8) && (bitnr > 3)) {
 635              	 .loc 3 59 0
 636 01b0 BB1D     	 add r3,r7,#6
 637 01b2 1B78     	 ldrb r3,[r3]
 638 01b4 072B     	 cmp r3,#7
 639 01b6 24D8     	 bhi .L33
 640              	 .loc 3 59 0 is_stmt 0 discriminator 1
 641 01b8 BB1D     	 add r3,r7,#6
 642 01ba 1B78     	 ldrb r3,[r3]
 643 01bc 032B     	 cmp r3,#3
 644 01be 20D9     	 bls .L33
  60:../XMC1100-LibHaas.c **** 				if (direction == 1) PORT1->IOCR4 |= 1UL << (((bitnr - 4) * 8) + 7);
 645              	 .loc 3 60 0 is_stmt 1
 646 01c0 7B1D     	 add r3,r7,#5
 647 01c2 1B78     	 ldrb r3,[r3]
 648 01c4 012B     	 cmp r3,#1
 649 01c6 0DD1     	 bne .L34
 650              	 .loc 3 60 0 is_stmt 0 discriminator 1
 651 01c8 6B4B     	 ldr r3,.L42+4
 652 01ca 6B4A     	 ldr r2,.L42+4
 653 01cc 5169     	 ldr r1,[r2,#20]
 654 01ce BA1D     	 add r2,r7,#6
 655 01d0 1278     	 ldrb r2,[r2]
 656 01d2 043A     	 sub r2,r2,#4
 657 01d4 D200     	 lsl r2,r2,#3
 658 01d6 0732     	 add r2,r2,#7
 659 01d8 0120     	 mov r0,#1
 660 01da 9040     	 lsl r0,r0,r2
 661 01dc 021C     	 mov r2,r0
 662 01de 0A43     	 orr r2,r1
 663 01e0 5A61     	 str r2,[r3,#20]
 664 01e2 0EE0     	 b .L33
 665              	.L34:
  61:../XMC1100-LibHaas.c **** 				else
  62:../XMC1100-LibHaas.c **** 					PORT1->IOCR4 &= ~(1UL << (((bitnr - 4) * 8) + 7));
 666              	 .loc 3 62 0 is_stmt 1
 667 01e4 644B     	 ldr r3,.L42+4
 668 01e6 644A     	 ldr r2,.L42+4
 669 01e8 5269     	 ldr r2,[r2,#20]
 670 01ea B91D     	 add r1,r7,#6
 671 01ec 0978     	 ldrb r1,[r1]
 672 01ee 0439     	 sub r1,r1,#4
 673 01f0 C900     	 lsl r1,r1,#3
 674 01f2 0731     	 add r1,r1,#7
 675 01f4 0120     	 mov r0,#1
 676 01f6 8840     	 lsl r0,r0,r1
 677 01f8 011C     	 mov r1,r0
 678 01fa C943     	 mvn r1,r1
 679 01fc 0A40     	 and r2,r1
 680 01fe 5A61     	 str r2,[r3,#20]
  63:../XMC1100-LibHaas.c **** 			}
  64:../XMC1100-LibHaas.c **** 
  65:../XMC1100-LibHaas.c **** 				}
  66:../XMC1100-LibHaas.c **** 			}
  67:../XMC1100-LibHaas.c **** 			break;
 681              	 .loc 3 67 0
 682 0200 B4E0     	 b .L18
 683              	.L33:
 684 0202 B3E0     	 b .L18
 685              	.L21:
  68:../XMC1100-LibHaas.c **** 
  69:../XMC1100-LibHaas.c **** 	  case 2 : //Achtung!! Nur Pins P2.0, P2.1, P2.10 und P2.11 sind als Out Pin einstellbar
  70:../XMC1100-LibHaas.c **** 	  	{
  71:../XMC1100-LibHaas.c **** 	  		if (bitnr < 2 ) {
 686              	 .loc 3 71 0
 687 0204 BB1D     	 add r3,r7,#6
 688 0206 1B78     	 ldrb r3,[r3]
 689 0208 012B     	 cmp r3,#1
 690 020a 28D8     	 bhi .L35
  72:../XMC1100-LibHaas.c **** 	  			CLR_BIT(PORT2->PDISC,bitnr); // digital Pad aktiv
 691              	 .loc 3 72 0
 692 020c 5B4B     	 ldr r3,.L42+8
 693 020e 5B4A     	 ldr r2,.L42+8
 694 0210 126E     	 ldr r2,[r2,#96]
 695 0212 B91D     	 add r1,r7,#6
 696 0214 0978     	 ldrb r1,[r1]
 697 0216 0120     	 mov r0,#1
 698 0218 8840     	 lsl r0,r0,r1
 699 021a 011C     	 mov r1,r0
 700 021c C943     	 mvn r1,r1
 701 021e 0A40     	 and r2,r1
 702 0220 1A66     	 str r2,[r3,#96]
  73:../XMC1100-LibHaas.c **** 	  			if (direction == 1) PORT2->IOCR0 |=1UL << ((bitnr * 8)+7);
 703              	 .loc 3 73 0
 704 0222 7B1D     	 add r3,r7,#5
 705 0224 1B78     	 ldrb r3,[r3]
 706 0226 012B     	 cmp r3,#1
 707 0228 0CD1     	 bne .L36
 708              	 .loc 3 73 0 is_stmt 0 discriminator 1
 709 022a 544B     	 ldr r3,.L42+8
 710 022c 534A     	 ldr r2,.L42+8
 711 022e 1169     	 ldr r1,[r2,#16]
 712 0230 BA1D     	 add r2,r7,#6
 713 0232 1278     	 ldrb r2,[r2]
 714 0234 D200     	 lsl r2,r2,#3
 715 0236 0732     	 add r2,r2,#7
 716 0238 0120     	 mov r0,#1
 717 023a 9040     	 lsl r0,r0,r2
 718 023c 021C     	 mov r2,r0
 719 023e 0A43     	 orr r2,r1
 720 0240 1A61     	 str r2,[r3,#16]
 721 0242 0CE0     	 b .L35
 722              	.L36:
  74:../XMC1100-LibHaas.c **** 					else PORT2->IOCR0 &= ~(1UL << ((bitnr * 8 ) + 7 ));
 723              	 .loc 3 74 0 is_stmt 1
 724 0244 4D4B     	 ldr r3,.L42+8
 725 0246 4D4A     	 ldr r2,.L42+8
 726 0248 1269     	 ldr r2,[r2,#16]
 727 024a B91D     	 add r1,r7,#6
 728 024c 0978     	 ldrb r1,[r1]
 729 024e C900     	 lsl r1,r1,#3
 730 0250 0731     	 add r1,r1,#7
 731 0252 0120     	 mov r0,#1
 732 0254 8840     	 lsl r0,r0,r1
 733 0256 011C     	 mov r1,r0
 734 0258 C943     	 mvn r1,r1
 735 025a 0A40     	 and r2,r1
 736 025c 1A61     	 str r2,[r3,#16]
 737              	.L35:
  75:../XMC1100-LibHaas.c **** 	  		}
  76:../XMC1100-LibHaas.c **** 				if ((bitnr > 1)&&(bitnr<4)) {
 738              	 .loc 3 76 0
 739 025e BB1D     	 add r3,r7,#6
 740 0260 1B78     	 ldrb r3,[r3]
 741 0262 012B     	 cmp r3,#1
 742 0264 1BD9     	 bls .L37
 743              	 .loc 3 76 0 is_stmt 0 discriminator 1
 744 0266 BB1D     	 add r3,r7,#6
 745 0268 1B78     	 ldrb r3,[r3]
 746 026a 032B     	 cmp r3,#3
 747 026c 17D8     	 bhi .L37
  77:../XMC1100-LibHaas.c **** 					CLR_BIT(PORT2->PDISC,bitnr); // digital Pad aktiv
 748              	 .loc 3 77 0 is_stmt 1
 749 026e 434B     	 ldr r3,.L42+8
 750 0270 424A     	 ldr r2,.L42+8
 751 0272 126E     	 ldr r2,[r2,#96]
 752 0274 B91D     	 add r1,r7,#6
 753 0276 0978     	 ldrb r1,[r1]
 754 0278 0120     	 mov r0,#1
 755 027a 8840     	 lsl r0,r0,r1
 756 027c 011C     	 mov r1,r0
 757 027e C943     	 mvn r1,r1
 758 0280 0A40     	 and r2,r1
 759 0282 1A66     	 str r2,[r3,#96]
  78:../XMC1100-LibHaas.c **** 					PORT2->IOCR0 &= ~(1UL << ((bitnr * 8) + 7));
 760              	 .loc 3 78 0
 761 0284 3D4B     	 ldr r3,.L42+8
 762 0286 3D4A     	 ldr r2,.L42+8
 763 0288 1269     	 ldr r2,[r2,#16]
 764 028a B91D     	 add r1,r7,#6
 765 028c 0978     	 ldrb r1,[r1]
 766 028e C900     	 lsl r1,r1,#3
 767 0290 0731     	 add r1,r1,#7
 768 0292 0120     	 mov r0,#1
 769 0294 8840     	 lsl r0,r0,r1
 770 0296 011C     	 mov r1,r0
 771 0298 C943     	 mvn r1,r1
 772 029a 0A40     	 and r2,r1
 773 029c 1A61     	 str r2,[r3,#16]
 774              	.L37:
  79:../XMC1100-LibHaas.c **** 				}
  80:../XMC1100-LibHaas.c **** 	  		if ((bitnr < 8) && (bitnr > 3)) {
 775              	 .loc 3 80 0
 776 029e BB1D     	 add r3,r7,#6
 777 02a0 1B78     	 ldrb r3,[r3]
 778 02a2 072B     	 cmp r3,#7
 779 02a4 1CD8     	 bhi .L38
 780              	 .loc 3 80 0 is_stmt 0 discriminator 1
 781 02a6 BB1D     	 add r3,r7,#6
 782 02a8 1B78     	 ldrb r3,[r3]
 783 02aa 032B     	 cmp r3,#3
 784 02ac 18D9     	 bls .L38
  81:../XMC1100-LibHaas.c **** 	  			    CLR_BIT(PORT2->PDISC,bitnr); // digital Pad aktiv
 785              	 .loc 3 81 0 is_stmt 1
 786 02ae 334B     	 ldr r3,.L42+8
 787 02b0 324A     	 ldr r2,.L42+8
 788 02b2 126E     	 ldr r2,[r2,#96]
 789 02b4 B91D     	 add r1,r7,#6
 790 02b6 0978     	 ldrb r1,[r1]
 791 02b8 0120     	 mov r0,#1
 792 02ba 8840     	 lsl r0,r0,r1
 793 02bc 011C     	 mov r1,r0
 794 02be C943     	 mvn r1,r1
 795 02c0 0A40     	 and r2,r1
 796 02c2 1A66     	 str r2,[r3,#96]
  82:../XMC1100-LibHaas.c **** 					PORT2->IOCR4 &= ~(1UL << (((bitnr-4) * 8 ) + 7 ));
 797              	 .loc 3 82 0
 798 02c4 2D4B     	 ldr r3,.L42+8
 799 02c6 2D4A     	 ldr r2,.L42+8
 800 02c8 5269     	 ldr r2,[r2,#20]
 801 02ca B91D     	 add r1,r7,#6
 802 02cc 0978     	 ldrb r1,[r1]
 803 02ce 0439     	 sub r1,r1,#4
 804 02d0 C900     	 lsl r1,r1,#3
 805 02d2 0731     	 add r1,r1,#7
 806 02d4 0120     	 mov r0,#1
 807 02d6 8840     	 lsl r0,r0,r1
 808 02d8 011C     	 mov r1,r0
 809 02da C943     	 mvn r1,r1
 810 02dc 0A40     	 and r2,r1
 811 02de 5A61     	 str r2,[r3,#20]
 812              	.L38:
  83:../XMC1100-LibHaas.c **** 				}
  84:../XMC1100-LibHaas.c **** 	  		if ((bitnr < 10) && (bitnr > 7)) {
 813              	 .loc 3 84 0
 814 02e0 BB1D     	 add r3,r7,#6
 815 02e2 1B78     	 ldrb r3,[r3]
 816 02e4 092B     	 cmp r3,#9
 817 02e6 11D8     	 bhi .L39
 818              	 .loc 3 84 0 is_stmt 0 discriminator 1
 819 02e8 BB1D     	 add r3,r7,#6
 820 02ea 1B78     	 ldrb r3,[r3]
 821 02ec 072B     	 cmp r3,#7
 822 02ee 0DD9     	 bls .L39
  85:../XMC1100-LibHaas.c **** 	  			PORT2->IOCR8 &= ~(1UL << (((bitnr-8) * 8 ) + 7 ));
 823              	 .loc 3 85 0 is_stmt 1
 824 02f0 224B     	 ldr r3,.L42+8
 825 02f2 224A     	 ldr r2,.L42+8
 826 02f4 9269     	 ldr r2,[r2,#24]
 827 02f6 B91D     	 add r1,r7,#6
 828 02f8 0978     	 ldrb r1,[r1]
 829 02fa 0839     	 sub r1,r1,#8
 830 02fc C900     	 lsl r1,r1,#3
 831 02fe 0731     	 add r1,r1,#7
 832 0300 0120     	 mov r0,#1
 833 0302 8840     	 lsl r0,r0,r1
 834 0304 011C     	 mov r1,r0
 835 0306 C943     	 mvn r1,r1
 836 0308 0A40     	 and r2,r1
 837 030a 9A61     	 str r2,[r3,#24]
 838              	.L39:
  86:../XMC1100-LibHaas.c **** 	  		}
  87:../XMC1100-LibHaas.c **** 	  		if (bitnr > 9 ) {
 839              	 .loc 3 87 0
 840 030c BB1D     	 add r3,r7,#6
 841 030e 1B78     	 ldrb r3,[r3]
 842 0310 092B     	 cmp r3,#9
 843 0312 2AD9     	 bls .L40
  88:../XMC1100-LibHaas.c **** 	  			CLR_BIT(PORT2->PDISC,bitnr); // digital Pad aktiv
 844              	 .loc 3 88 0
 845 0314 194B     	 ldr r3,.L42+8
 846 0316 194A     	 ldr r2,.L42+8
 847 0318 126E     	 ldr r2,[r2,#96]
 848 031a B91D     	 add r1,r7,#6
 849 031c 0978     	 ldrb r1,[r1]
 850 031e 0120     	 mov r0,#1
 851 0320 8840     	 lsl r0,r0,r1
 852 0322 011C     	 mov r1,r0
 853 0324 C943     	 mvn r1,r1
 854 0326 0A40     	 and r2,r1
 855 0328 1A66     	 str r2,[r3,#96]
  89:../XMC1100-LibHaas.c **** 	  			if (direction == 1) PORT2->IOCR8 |=1UL << (((bitnr-8) * 8)+7);
 856              	 .loc 3 89 0
 857 032a 7B1D     	 add r3,r7,#5
 858 032c 1B78     	 ldrb r3,[r3]
 859 032e 012B     	 cmp r3,#1
 860 0330 0DD1     	 bne .L41
 861              	 .loc 3 89 0 is_stmt 0 discriminator 1
 862 0332 124B     	 ldr r3,.L42+8
 863 0334 114A     	 ldr r2,.L42+8
 864 0336 9169     	 ldr r1,[r2,#24]
 865 0338 BA1D     	 add r2,r7,#6
 866 033a 1278     	 ldrb r2,[r2]
 867 033c 083A     	 sub r2,r2,#8
 868 033e D200     	 lsl r2,r2,#3
 869 0340 0732     	 add r2,r2,#7
 870 0342 0120     	 mov r0,#1
 871 0344 9040     	 lsl r0,r0,r2
 872 0346 021C     	 mov r2,r0
 873 0348 0A43     	 orr r2,r1
 874 034a 9A61     	 str r2,[r3,#24]
 875 034c 0DE0     	 b .L40
 876              	.L41:
  90:../XMC1100-LibHaas.c **** 	  			else PORT2->IOCR8 &= ~(1UL << (((bitnr-8) * 8 ) + 7 ));
 877              	 .loc 3 90 0 is_stmt 1
 878 034e 0B4B     	 ldr r3,.L42+8
 879 0350 0A4A     	 ldr r2,.L42+8
 880 0352 9269     	 ldr r2,[r2,#24]
 881 0354 B91D     	 add r1,r7,#6
 882 0356 0978     	 ldrb r1,[r1]
 883 0358 0839     	 sub r1,r1,#8
 884 035a C900     	 lsl r1,r1,#3
 885 035c 0731     	 add r1,r1,#7
 886 035e 0120     	 mov r0,#1
 887 0360 8840     	 lsl r0,r0,r1
 888 0362 011C     	 mov r1,r0
 889 0364 C943     	 mvn r1,r1
 890 0366 0A40     	 and r2,r1
 891 0368 9A61     	 str r2,[r3,#24]
 892              	.L40:
  91:../XMC1100-LibHaas.c **** 	  		}
  92:../XMC1100-LibHaas.c ****   			break;
 893              	 .loc 3 92 0
 894 036a C046     	 mov r8,r8
 895              	.L18:
  93:../XMC1100-LibHaas.c **** 	  	}
  94:../XMC1100-LibHaas.c **** 	  }
  95:../XMC1100-LibHaas.c **** }
 896              	 .loc 3 95 0
 897 036c BD46     	 mov sp,r7
 898 036e 03B0     	 add sp,sp,#12
 899              	 
 900 0370 90BD     	 pop {r4,r7,pc}
 901              	.L43:
 902 0372 C046     	 .align 2
 903              	.L42:
 904 0374 00000440 	 .word 1074003968
 905 0378 00010440 	 .word 1074004224
 906 037c 00020440 	 .word 1074004480
 907              	 .cfi_endproc
 908              	.LFE36:
 910              	 .section .text.bit_init_mode,"ax",%progbits
 911              	 .align 2
 912              	 .global bit_init_mode
 913              	 .code 16
 914              	 .thumb_func
 916              	bit_init_mode:
 917              	.LFB37:
  96:../XMC1100-LibHaas.c **** 
  97:../XMC1100-LibHaas.c **** /* --------------------------------------------------------------
  98:../XMC1100-LibHaas.c **** * Einzelnes Bit fr Ein- oder Ausgabe initialisieren
  99:../XMC1100-LibHaas.c **** * port: P0,P1,P2 bitnr: 0..15 direction: INP 0, OUTP 1
 100:../XMC1100-LibHaas.c **** * mode: NO_PULL PULLUP PULLDOWN
 101:../XMC1100-LibHaas.c **** */
 102:../XMC1100-LibHaas.c **** void bit_init_mode (uint8_t port, uint8_t bitnr, uint8_t direction, uint8_t mode)
 103:../XMC1100-LibHaas.c **** {
 918              	 .loc 3 103 0
 919              	 .cfi_startproc
 920 0000 B0B5     	 push {r4,r5,r7,lr}
 921              	.LCFI15:
 922              	 .cfi_def_cfa_offset 16
 923              	 .cfi_offset 4,-16
 924              	 .cfi_offset 5,-12
 925              	 .cfi_offset 7,-8
 926              	 .cfi_offset 14,-4
 927 0002 82B0     	 sub sp,sp,#8
 928              	.LCFI16:
 929              	 .cfi_def_cfa_offset 24
 930 0004 00AF     	 add r7,sp,#0
 931              	.LCFI17:
 932              	 .cfi_def_cfa_register 7
 933 0006 051C     	 mov r5,r0
 934 0008 0C1C     	 mov r4,r1
 935 000a 101C     	 mov r0,r2
 936 000c 191C     	 mov r1,r3
 937 000e FB1D     	 add r3,r7,#7
 938 0010 2A1C     	 add r2,r5,#0
 939 0012 1A70     	 strb r2,[r3]
 940 0014 BB1D     	 add r3,r7,#6
 941 0016 221C     	 add r2,r4,#0
 942 0018 1A70     	 strb r2,[r3]
 943 001a 7B1D     	 add r3,r7,#5
 944 001c 021C     	 add r2,r0,#0
 945 001e 1A70     	 strb r2,[r3]
 946 0020 3B1D     	 add r3,r7,#4
 947 0022 0A1C     	 add r2,r1,#0
 948 0024 1A70     	 strb r2,[r3]
 104:../XMC1100-LibHaas.c **** 	switch (port)
 949              	 .loc 3 104 0
 950 0026 FB1D     	 add r3,r7,#7
 951 0028 1B78     	 ldrb r3,[r3]
 952 002a 012B     	 cmp r3,#1
 953 002c 00D1     	 bne .LCB857
 954 002e CFE1     	 b .L46
 955              	.LCB857:
 956 0030 022B     	 cmp r3,#2
 957 0032 00D1     	 bne .LCB859
 958 0034 ABE2     	 b .L47
 959              	.LCB859:
 960 0036 002B     	 cmp r3,#0
 961 0038 01D0     	 beq .LCB861
 962 003a 00F098FD 	 bl .L44
 963              	.LCB861:
 105:../XMC1100-LibHaas.c **** 	{
 106:../XMC1100-LibHaas.c **** 		case 0 :
 107:../XMC1100-LibHaas.c **** 		{
 108:../XMC1100-LibHaas.c **** 			if (bitnr < 4 ) {
 964              	 .loc 3 108 0
 965 003e BB1D     	 add r3,r7,#6
 966 0040 1B78     	 ldrb r3,[r3]
 967 0042 032B     	 cmp r3,#3
 968 0044 65D8     	 bhi .L49
 109:../XMC1100-LibHaas.c **** 				if (direction == 1) {
 969              	 .loc 3 109 0
 970 0046 7B1D     	 add r3,r7,#5
 971 0048 1B78     	 ldrb r3,[r3]
 972 004a 012B     	 cmp r3,#1
 973 004c 19D1     	 bne .L50
 110:../XMC1100-LibHaas.c **** 					PORT0->IOCR0 |=1UL << ((bitnr * 8)+7);
 974              	 .loc 3 110 0
 975 004e DF4B     	 ldr r3,.L100
 976 0050 DE4A     	 ldr r2,.L100
 977 0052 1169     	 ldr r1,[r2,#16]
 978 0054 BA1D     	 add r2,r7,#6
 979 0056 1278     	 ldrb r2,[r2]
 980 0058 D200     	 lsl r2,r2,#3
 981 005a 0732     	 add r2,r2,#7
 982 005c 0120     	 mov r0,#1
 983 005e 9040     	 lsl r0,r0,r2
 984 0060 021C     	 mov r2,r0
 985 0062 0A43     	 orr r2,r1
 986 0064 1A61     	 str r2,[r3,#16]
 111:../XMC1100-LibHaas.c **** 					PORT0->IOCR0 &= ~(0x0000000F << ((bitnr * 8)+3));
 987              	 .loc 3 111 0
 988 0066 D94B     	 ldr r3,.L100
 989 0068 D84A     	 ldr r2,.L100
 990 006a 1269     	 ldr r2,[r2,#16]
 991 006c B91D     	 add r1,r7,#6
 992 006e 0978     	 ldrb r1,[r1]
 993 0070 C900     	 lsl r1,r1,#3
 994 0072 0331     	 add r1,r1,#3
 995 0074 0F20     	 mov r0,#15
 996 0076 8840     	 lsl r0,r0,r1
 997 0078 011C     	 mov r1,r0
 998 007a C943     	 mvn r1,r1
 999 007c 0A40     	 and r2,r1
 1000 007e 1A61     	 str r2,[r3,#16]
 1001 0080 47E0     	 b .L49
 1002              	.L50:
 112:../XMC1100-LibHaas.c **** 				}
 113:../XMC1100-LibHaas.c **** 				else {
 114:../XMC1100-LibHaas.c **** 					PORT0->IOCR0 &= ~(1UL << ((bitnr * 8 ) + 7 ));
 1003              	 .loc 3 114 0
 1004 0082 D24B     	 ldr r3,.L100
 1005 0084 D14A     	 ldr r2,.L100
 1006 0086 1269     	 ldr r2,[r2,#16]
 1007 0088 B91D     	 add r1,r7,#6
 1008 008a 0978     	 ldrb r1,[r1]
 1009 008c C900     	 lsl r1,r1,#3
 1010 008e 0731     	 add r1,r1,#7
 1011 0090 0120     	 mov r0,#1
 1012 0092 8840     	 lsl r0,r0,r1
 1013 0094 011C     	 mov r1,r0
 1014 0096 C943     	 mvn r1,r1
 1015 0098 0A40     	 and r2,r1
 1016 009a 1A61     	 str r2,[r3,#16]
 115:../XMC1100-LibHaas.c **** 					if (mode == PULLUP) {
 1017              	 .loc 3 115 0
 1018 009c 3B1D     	 add r3,r7,#4
 1019 009e 1B78     	 ldrb r3,[r3]
 1020 00a0 012B     	 cmp r3,#1
 1021 00a2 19D1     	 bne .L51
 116:../XMC1100-LibHaas.c **** 						PORT0->IOCR0 &= ~(0x0000001F << ((bitnr * 8)+3) );
 1022              	 .loc 3 116 0
 1023 00a4 C94B     	 ldr r3,.L100
 1024 00a6 C94A     	 ldr r2,.L100
 1025 00a8 1269     	 ldr r2,[r2,#16]
 1026 00aa B91D     	 add r1,r7,#6
 1027 00ac 0978     	 ldrb r1,[r1]
 1028 00ae C900     	 lsl r1,r1,#3
 1029 00b0 0331     	 add r1,r1,#3
 1030 00b2 1F20     	 mov r0,#31
 1031 00b4 8840     	 lsl r0,r0,r1
 1032 00b6 011C     	 mov r1,r0
 1033 00b8 C943     	 mvn r1,r1
 1034 00ba 0A40     	 and r2,r1
 1035 00bc 1A61     	 str r2,[r3,#16]
 117:../XMC1100-LibHaas.c **** 						PORT0->IOCR0 |= (1UL << ((bitnr * 8)+4) );
 1036              	 .loc 3 117 0
 1037 00be C34B     	 ldr r3,.L100
 1038 00c0 C24A     	 ldr r2,.L100
 1039 00c2 1169     	 ldr r1,[r2,#16]
 1040 00c4 BA1D     	 add r2,r7,#6
 1041 00c6 1278     	 ldrb r2,[r2]
 1042 00c8 D200     	 lsl r2,r2,#3
 1043 00ca 0432     	 add r2,r2,#4
 1044 00cc 0120     	 mov r0,#1
 1045 00ce 9040     	 lsl r0,r0,r2
 1046 00d0 021C     	 mov r2,r0
 1047 00d2 0A43     	 orr r2,r1
 1048 00d4 1A61     	 str r2,[r3,#16]
 1049 00d6 1CE0     	 b .L49
 1050              	.L51:
 118:../XMC1100-LibHaas.c **** 					} else if (mode == PULLDOWN) {
 1051              	 .loc 3 118 0
 1052 00d8 3B1D     	 add r3,r7,#4
 1053 00da 1B78     	 ldrb r3,[r3]
 1054 00dc 022B     	 cmp r3,#2
 1055 00de 18D1     	 bne .L49
 119:../XMC1100-LibHaas.c **** 						PORT0->IOCR0 &= ~(0x0000001F << ((bitnr * 8)+3) );
 1056              	 .loc 3 119 0
 1057 00e0 BA4B     	 ldr r3,.L100
 1058 00e2 BA4A     	 ldr r2,.L100
 1059 00e4 1269     	 ldr r2,[r2,#16]
 1060 00e6 B91D     	 add r1,r7,#6
 1061 00e8 0978     	 ldrb r1,[r1]
 1062 00ea C900     	 lsl r1,r1,#3
 1063 00ec 0331     	 add r1,r1,#3
 1064 00ee 1F20     	 mov r0,#31
 1065 00f0 8840     	 lsl r0,r0,r1
 1066 00f2 011C     	 mov r1,r0
 1067 00f4 C943     	 mvn r1,r1
 1068 00f6 0A40     	 and r2,r1
 1069 00f8 1A61     	 str r2,[r3,#16]
 120:../XMC1100-LibHaas.c **** 						PORT0->IOCR0 |= (1UL << ((bitnr * 8)+3) );
 1070              	 .loc 3 120 0
 1071 00fa B44B     	 ldr r3,.L100
 1072 00fc B34A     	 ldr r2,.L100
 1073 00fe 1169     	 ldr r1,[r2,#16]
 1074 0100 BA1D     	 add r2,r7,#6
 1075 0102 1278     	 ldrb r2,[r2]
 1076 0104 D200     	 lsl r2,r2,#3
 1077 0106 0332     	 add r2,r2,#3
 1078 0108 0120     	 mov r0,#1
 1079 010a 9040     	 lsl r0,r0,r2
 1080 010c 021C     	 mov r2,r0
 1081 010e 0A43     	 orr r2,r1
 1082 0110 1A61     	 str r2,[r3,#16]
 1083              	.L49:
 121:../XMC1100-LibHaas.c **** 					}
 122:../XMC1100-LibHaas.c **** 				}
 123:../XMC1100-LibHaas.c **** 			}
 124:../XMC1100-LibHaas.c **** 			if ( (bitnr <8) && (bitnr > 3)) {
 1084              	 .loc 3 124 0
 1085 0112 BB1D     	 add r3,r7,#6
 1086 0114 1B78     	 ldrb r3,[r3]
 1087 0116 072B     	 cmp r3,#7
 1088 0118 6ED8     	 bhi .L52
 1089              	 .loc 3 124 0 is_stmt 0 discriminator 1
 1090 011a BB1D     	 add r3,r7,#6
 1091 011c 1B78     	 ldrb r3,[r3]
 1092 011e 032B     	 cmp r3,#3
 1093 0120 6AD9     	 bls .L52
 125:../XMC1100-LibHaas.c **** 				if (direction == 1) {
 1094              	 .loc 3 125 0 is_stmt 1
 1095 0122 7B1D     	 add r3,r7,#5
 1096 0124 1B78     	 ldrb r3,[r3]
 1097 0126 012B     	 cmp r3,#1
 1098 0128 1BD1     	 bne .L53
 126:../XMC1100-LibHaas.c **** 					PORT0->IOCR4 |= 1UL<< (((bitnr-4) * 8)+7);
 1099              	 .loc 3 126 0
 1100 012a A84B     	 ldr r3,.L100
 1101 012c A74A     	 ldr r2,.L100
 1102 012e 5169     	 ldr r1,[r2,#20]
 1103 0130 BA1D     	 add r2,r7,#6
 1104 0132 1278     	 ldrb r2,[r2]
 1105 0134 043A     	 sub r2,r2,#4
 1106 0136 D200     	 lsl r2,r2,#3
 1107 0138 0732     	 add r2,r2,#7
 1108 013a 0120     	 mov r0,#1
 1109 013c 9040     	 lsl r0,r0,r2
 1110 013e 021C     	 mov r2,r0
 1111 0140 0A43     	 orr r2,r1
 1112 0142 5A61     	 str r2,[r3,#20]
 127:../XMC1100-LibHaas.c **** 					PORT0->IOCR4 &= ~(0x0000000F << (((bitnr-4) * 8)+3));
 1113              	 .loc 3 127 0
 1114 0144 A14B     	 ldr r3,.L100
 1115 0146 A14A     	 ldr r2,.L100
 1116 0148 5269     	 ldr r2,[r2,#20]
 1117 014a B91D     	 add r1,r7,#6
 1118 014c 0978     	 ldrb r1,[r1]
 1119 014e 0439     	 sub r1,r1,#4
 1120 0150 C900     	 lsl r1,r1,#3
 1121 0152 0331     	 add r1,r1,#3
 1122 0154 0F20     	 mov r0,#15
 1123 0156 8840     	 lsl r0,r0,r1
 1124 0158 011C     	 mov r1,r0
 1125 015a C943     	 mvn r1,r1
 1126 015c 0A40     	 and r2,r1
 1127 015e 5A61     	 str r2,[r3,#20]
 1128 0160 4AE0     	 b .L52
 1129              	.L53:
 128:../XMC1100-LibHaas.c **** 				}
 129:../XMC1100-LibHaas.c **** 				else {
 130:../XMC1100-LibHaas.c **** 					PORT0->IOCR4 &= ~(1UL << (((bitnr-4) * 8)+7) );
 1130              	 .loc 3 130 0
 1131 0162 9A4B     	 ldr r3,.L100
 1132 0164 994A     	 ldr r2,.L100
 1133 0166 5269     	 ldr r2,[r2,#20]
 1134 0168 B91D     	 add r1,r7,#6
 1135 016a 0978     	 ldrb r1,[r1]
 1136 016c 0439     	 sub r1,r1,#4
 1137 016e C900     	 lsl r1,r1,#3
 1138 0170 0731     	 add r1,r1,#7
 1139 0172 0120     	 mov r0,#1
 1140 0174 8840     	 lsl r0,r0,r1
 1141 0176 011C     	 mov r1,r0
